Certificate:
    Data:
        Version: 3 (0x2)
        Serial Number: 1 (0x1)
        Signature Algorithm: sha256WithRSAEncryption
        Issuer: C=SE, O=Example, OU=Example Certificate Authority, CN=Example Root CA
        Validity
            Not Before: Nov 26 11:09:46 2021 GMT
            Not After : Nov  2 11:09:46 2121 GMT
        Subject: C=SE, O=Example, OU=Example Certificate Authority, CN=Example Root CA
        Subject Public Key Info:
            Public Key Algorithm: rsaEncryption
                RSA Public-Key: (2048 bit)
                Modulus:
                    00:ae:99:48:6b:f5:7c:e9:3d:c5:7b:d0:1b:8c:51:
                    cc:42:25:06:f6:e5:52:37:ce:c9:2b:66:21:b8:4d:
                    32:c2:09:52:8b:26:3e:57:7a:3c:44:a5:c5:ac:cb:
                    5e:7d:ad:e3:7c:57:1b:88:a6:96:85:f3:dd:a1:5e:
                    48:34:a8:a5:a4:aa:58:c1:32:5f:2f:59:2c:e7:7b:
                    a9:a7:45:71:b0:91:6a:21:49:d5:46:91:c7:51:81:
                    53:a0:5f:7f:48:14:2b:66:ac:73:b1:9d:04:2e:4d:
                    f1:1b:f8:39:2c:a8:3a:65:d2:35:b5:53:8b:5d:fb:
                    16:02:ab:34:63:39:9b:68:8a:a7:df:3b:4f:e4:6f:
                    58:d0:c4:c7:f1:d7:3d:77:96:5e:6b:cd:07:0f:17:
                    13:97:d3:d3:8e:9a:b1:76:37:17:1f:5a:9f:4c:ee:
                    21:15:fc:68:b1:37:e7:b2:11:7b:bb:19:df:e7:49:
                    e1:80:62:33:35:3e:98:a3:79:34:67:1d:57:59:bb:
                    c9:8f:1b:41:7b:a7:08:6d:cc:2b:b6:66:e0:38:8c:
                    2a:6a:f5:6f:c6:d3:42:e7:6e:a0:1f:e8:bd:d5:02:
                    e5:bd:bf:4b:82:8a:31:b5:42:05:33:c8:93:70:03:
                    07:a0:8f:32:51:40:f9:79:d9:d3:eb:e9:86:e2:4c:
                    40:03
                Exponent: 65537 (0x10001)
        X509v3 extensions:
            X509v3 Key Usage: critical
                Certificate Sign, CRL Sign
            X509v3 Basic Constraints: critical
                CA:TRUE
            X509v3 Subject Key Identifier: 
                EF:E5:01:87:C5:56:BA:C9:A1:35:54:C0:1D:83:11:77:4D:43:AE:93
            X509v3 Authority Key Identifier: 
                keyid:EF:E5:01:87:C5:56:BA:C9:A1:35:54:C0:1D:83:11:77:4D:43:AE:93

    Signature Algorithm: sha256WithRSAEncryption
         1c:e5:16:b9:dc:2d:1d:ab:24:b4:48:ef:d3:01:57:63:04:e3:
         4c:9a:bd:fc:39:39:02:d5:32:99:7f:38:5a:40:52:86:a6:30:
         c5:97:08:ac:c1:59:13:62:de:5c:cd:f5:15:8c:cc:af:de:0c:
         d0:63:d2:7c:55:58:86:f1:40:76:93:55:79:65:7f:8b:e2:d7:
         1d:7d:b8:65:6f:03:b9:c1:d0:a9:5c:d2:3a:f3:97:7b:17:bb:
         3a:b0:db:5c:91:7e:87:23:6d:d0:3c:14:b9:0d:64:d5:d0:61:
         6b:9d:e8:f2:c9:ab:cb:5c:9c:52:32:3b:ce:40:ed:95:29:6a:
         3d:eb:8d:a5:b3:49:02:b3:61:49:39:1a:1d:89:c5:25:aa:01:
         99:13:31:66:e9:22:8a:3f:3a:e3:ee:84:63:1e:d2:6c:24:37:
         d3:85:6f:8f:6d:db:10:a6:42:4f:d5:e3:84:2e:3f:59:08:58:
         40:e5:76:3e:02:4d:80:92:9a:b7:4a:2f:bf:45:1c:ef:8e:6d:
         e2:04:42:2a:43:38:b0:b3:f6:6a:34:f4:26:e5:a7:72:68:54:
         88:df:af:32:01:0c:94:de:7c:93:01:dd:1a:8a:ee:79:e7:f0:
         c6:c5:01:bd:c4:2e:cb:17:b0:96:f5:91:4b:5f:18:07:9d:49:
         fb:2b:b4:5e
-----BEGIN CERTIFICATE-----
MIIDojCCAoqgAwIBAgIBATANBgkqhkiG9w0BAQsFADBhMQswCQYDVQQGEwJTRTEQ
MA4GA1UECgwHRXhhbXBsZTEmMCQGA1UECwwdRXhhbXBsZSBDZXJ0aWZpY2F0ZSBB
dXRob3JpdHkxGDAWBgNVBAMMD0V4YW1wbGUgUm9vdCBDQTAgFw0yMTExMjYxMTA5
NDZaGA8yMTIxMTEwMjExMDk0NlowYTELMAkGA1UEBhMCU0UxEDAOBgNVBAoMB0V4
YW1wbGUxJjAkBgNVBAsMHUV4YW1wbGUgQ2VydGlmaWNhdGUgQXV0aG9yaXR5MRgw
FgYDVQQDDA9FeGFtcGxlIFJvb3QgQ0EwggEiMA0GCSqGSIb3DQEBAQUAA4IBDwAw
ggEKAoIBAQCumUhr9XzpPcV70BuMUcxCJQb25VI3zskrZiG4TTLCCVKLJj5XejxE
pcWsy159reN8VxuIppaF892hXkg0qKWkqljBMl8vWSzne6mnRXGwkWohSdVGkcdR
gVOgX39IFCtmrHOxnQQuTfEb+DksqDpl0jW1U4td+xYCqzRjOZtoiqffO0/kb1jQ
xMfx1z13ll5rzQcPFxOX09OOmrF2NxcfWp9M7iEV/GixN+eyEXu7Gd/nSeGAYjM1
PpijeTRnHVdZu8mPG0F7pwhtzCu2ZuA4jCpq9W/G00LnbqAf6L3VAuW9v0uCijG1
QgUzyJNwAwegjzJRQPl52dPr6YbiTEADAgMBAAGjYzBhMA4GA1UdDwEB/wQEAwIB
BjAPBgNVHRMBAf8EBTADAQH/MB0GA1UdDgQWBBTv5QGHxVa6yaE1VMAdgxF3TUOu
kzAfBgNVHSMEGDAWgBTv5QGHxVa6yaE1VMAdgxF3TUOukzANBgkqhkiG9w0BAQsF
AAOCAQEAHOUWudwtHasktEjv0wFXYwTjTJq9/Dk5AtUymX84WkBShqYwxZcIrMFZ
E2LeXM31FYzMr94M0GPSfFVYhvFAdpNVeWV/i+LXHX24ZW8DucHQqVzSOvOXexe7
OrDbXJF+hyNt0DwUuQ1k1dBha53o8smry1ycUjI7zkDtlSlqPeuNpbNJArNhSTka
HYnFJaoBmRMxZukiij864+6EYx7SbCQ304Vvj23bEKZCT9XjhC4/WQhYQOV2PgJN
gJKat0ovv0Uc745t4gRCKkM4sLP2ajT0JuWncmhUiN+vMgEMlN58kwHdGorueefw
xsUBvcQuyxewlvWRS18YB51J+yu0Xg==
-----END CERTIFICATE-----
