Certificate:
    Data:
        Version: 3 (0x2)
        Serial Number: 1 (0x1)
    Signature Algorithm: sha1WithRSAEncryption
        Issuer: C=SE, O=Example, OU=Example Certificate Authority, CN=Example Root CA
        Validity
            Not Before: Mar 13 11:42:59 2018 GMT
            Not After : Feb 17 11:42:59 2118 GMT
        Subject: C=SE, O=Example, OU=Example Certificate Authority, CN=Example Root CA
        Subject Public Key Info:
            Public Key Algorithm: rsaEncryption
                Public-Key: (2048 bit)
                Modulus:
                    00:e9:b8:c4:c8:0d:d4:4a:b6:fe:71:be:c0:e5:c8:
                    4c:a3:1d:3b:b4:e2:ba:9b:5d:9f:9d:bb:0f:c9:55:
                    93:38:71:80:bb:24:b6:80:6c:d8:e4:4a:11:41:7f:
                    f3:0b:5c:dd:31:b3:38:49:e4:86:ef:39:d5:96:58:
                    95:f2:9d:2b:ac:5a:ea:1d:f1:4c:1b:b8:bf:e2:60:
                    58:be:c7:48:35:6e:04:4b:83:74:3d:ea:e1:24:a5:
                    16:21:65:c6:cc:1f:ee:70:3c:e9:6c:34:bf:04:16:
                    8f:74:4a:a1:12:69:09:d1:3a:68:c7:70:13:b0:ce:
                    ca:a8:cc:c0:36:28:61:46:c0:1a:91:20:59:b3:44:
                    ff:5e:29:02:e8:2a:b8:28:66:bb:15:84:a0:d9:8e:
                    0b:18:96:37:4f:b1:fc:44:33:64:09:0a:4b:fb:31:
                    15:4c:76:6c:b0:21:48:21:44:85:fb:fc:fa:26:45:
                    d3:c5:88:80:6b:f4:f8:fb:d1:49:33:ee:83:27:e3:
                    53:41:18:74:30:8c:95:71:3a:4a:7f:8d:0f:c3:e9:
                    ad:80:6a:78:27:d7:a5:0f:d6:b5:4d:66:bc:f6:6a:
                    f2:11:5f:dc:2c:01:46:c7:05:67:6f:46:3c:e3:81:
                    14:3a:68:7f:b3:84:1f:a9:58:e1:7f:a4:64:42:35:
                    61:09
                Exponent: 65537 (0x10001)
        X509v3 extensions:
            X509v3 Key Usage: critical
                Certificate Sign, CRL Sign
            X509v3 Basic Constraints: critical
                CA:TRUE
            X509v3 Subject Key Identifier: 
                E1:28:F4:2B:B0:F4:89:C8:32:07:59:DE:06:90:87:49:ED:73:18:0E
            X509v3 Authority Key Identifier: 
                keyid:E1:28:F4:2B:B0:F4:89:C8:32:07:59:DE:06:90:87:49:ED:73:18:0E

    Signature Algorithm: sha1WithRSAEncryption
         ad:03:42:ee:15:d6:06:67:89:0c:42:4a:7d:c9:cf:51:6d:fa:
         34:3d:a6:b2:76:07:ae:72:42:fc:37:e2:af:9b:a9:e9:dd:a9:
         32:b1:f1:79:d2:ec:c4:65:36:1f:e1:cd:e0:90:0a:0d:80:ac:
         0e:81:81:17:b0:f5:b1:59:5e:b2:80:88:4c:cf:f2:a1:67:49:
         70:2f:4f:4a:6c:1f:d5:70:06:c0:d1:9d:aa:dc:61:67:b4:89:
         6d:37:94:f6:9b:81:02:b7:7a:b8:d9:e0:4b:b9:84:22:fb:e2:
         41:b7:7a:bb:80:c3:f1:60:bd:0c:1d:a1:fa:2d:5f:dc:c2:bd:
         b6:e5:c3:ab:a0:3c:ff:d3:f2:14:00:98:56:d2:75:59:61:8f:
         0d:ed:c2:a2:1e:af:06:1a:50:1f:c4:7e:dc:3a:46:22:d4:b5:
         90:0f:94:34:9a:62:6c:9f:07:60:10:b0:8f:37:73:45:46:a6:
         18:16:57:5e:f7:c8:20:39:ee:1c:00:31:e4:8e:26:25:bb:89:
         2d:39:6b:64:27:95:1b:e5:dd:7e:4c:7f:6a:5c:92:53:3f:02:
         b0:5e:11:ff:00:3e:46:42:59:c1:39:02:9f:31:8e:de:dc:3f:
         d8:70:f8:49:d8:ea:b0:7a:7e:17:29:6f:50:c8:f9:4f:5b:5d:
         12:d7:8b:83
-----BEGIN CERTIFICATE-----
MIIDojCCAoqgAwIBAgIBATANBgkqhkiG9w0BAQUFADBhMQswCQYDVQQGEwJTRTEQ
MA4GA1UECgwHRXhhbXBsZTEmMCQGA1UECwwdRXhhbXBsZSBDZXJ0aWZpY2F0ZSBB
dXRob3JpdHkxGDAWBgNVBAMMD0V4YW1wbGUgUm9vdCBDQTAgFw0xODAzMTMxMTQy
NTlaGA8yMTE4MDIxNzExNDI1OVowYTELMAkGA1UEBhMCU0UxEDAOBgNVBAoMB0V4
YW1wbGUxJjAkBgNVBAsMHUV4YW1wbGUgQ2VydGlmaWNhdGUgQXV0aG9yaXR5MRgw
FgYDVQQDDA9FeGFtcGxlIFJvb3QgQ0EwggEiMA0GCSqGSIb3DQEBAQUAA4IBDwAw
ggEKAoIBAQDpuMTIDdRKtv5xvsDlyEyjHTu04rqbXZ+duw/JVZM4cYC7JLaAbNjk
ShFBf/MLXN0xszhJ5IbvOdWWWJXynSusWuod8UwbuL/iYFi+x0g1bgRLg3Q96uEk
pRYhZcbMH+5wPOlsNL8EFo90SqESaQnROmjHcBOwzsqozMA2KGFGwBqRIFmzRP9e
KQLoKrgoZrsVhKDZjgsYljdPsfxEM2QJCkv7MRVMdmywIUghRIX7/PomRdPFiIBr
9Pj70Ukz7oMn41NBGHQwjJVxOkp/jQ/D6a2Aangn16UP1rVNZrz2avIRX9wsAUbH
BWdvRjzjgRQ6aH+zhB+pWOF/pGRCNWEJAgMBAAGjYzBhMA4GA1UdDwEB/wQEAwIB
BjAPBgNVHRMBAf8EBTADAQH/MB0GA1UdDgQWBBThKPQrsPSJyDIHWd4GkIdJ7XMY
DjAfBgNVHSMEGDAWgBThKPQrsPSJyDIHWd4GkIdJ7XMYDjANBgkqhkiG9w0BAQUF
AAOCAQEArQNC7hXWBmeJDEJKfcnPUW36ND2msnYHrnJC/Dfir5up6d2pMrHxedLs
xGU2H+HN4JAKDYCsDoGBF7D1sVlesoCITM/yoWdJcC9PSmwf1XAGwNGdqtxhZ7SJ
bTeU9puBArd6uNngS7mEIvviQbd6u4DD8WC9DB2h+i1f3MK9tuXDq6A8/9PyFACY
VtJ1WWGPDe3Coh6vBhpQH8R+3DpGItS1kA+UNJpibJ8HYBCwjzdzRUamGBZXXvfI
IDnuHAAx5I4mJbuJLTlrZCeVG+Xdfkx/alySUz8CsF4R/wA+RkJZwTkCnzGO3tw/
2HD4SdjqsHp+FylvUMj5T1tdEteLgw==
-----END CERTIFICATE-----
