Certificate:
    Data:
        Version: 3 (0x2)
        Serial Number: 2 (0x2)
        Signature Algorithm: sha256WithRSAEncryption
        Issuer: C=SE, O=Example, OU=Example Certificate Authority, CN=Example Root CA
        Validity
            Not Before: Nov 26 11:09:46 2021 GMT
            Not After : Nov 24 11:09:46 2031 GMT
        Subject: C=SE, O=Example, OU=Example Certificate Authority, CN=Example Cluster Authority
        Subject Public Key Info:
            Public Key Algorithm: rsaEncryption
                RSA Public-Key: (2048 bit)
                Modulus:
                    00:ce:43:81:b3:b9:35:de:b7:76:c6:f2:f7:9a:17:
                    6d:4d:a4:cd:4b:4d:ed:a9:43:35:85:d9:7d:21:56:
                    43:f5:e9:f3:f9:45:57:a1:f3:f0:54:6d:65:d4:9f:
                    e5:a2:fb:5d:55:41:ab:48:89:21:39:b2:66:30:85:
                    e9:aa:53:de:66:56:46:e1:24:f7:51:82:27:9d:40:
                    c9:c3:dd:04:26:f4:38:8f:d0:12:3a:67:7c:4f:d0:
                    6d:4a:85:37:ac:57:77:a0:34:9e:4b:41:85:0e:41:
                    36:f2:05:9c:21:1b:40:51:89:e3:d6:e8:88:c2:8c:
                    7c:3d:1e:eb:d5:8c:69:1f:36:2b:e5:fa:ad:c0:bb:
                    98:e2:2d:29:ce:1a:34:cb:7e:1b:c7:4b:f3:36:11:
                    b4:5b:32:55:d4:6a:18:c4:b8:68:34:01:f6:55:0d:
                    8e:d7:ed:7a:9c:53:92:e5:40:36:b9:22:d8:a1:f6:
                    c8:f2:a7:07:c2:56:3b:76:84:a9:08:c3:ee:1e:b7:
                    20:2a:5f:6a:82:63:2e:12:89:e7:aa:03:ca:72:c8:
                    ab:b3:65:89:d8:b1:36:a3:46:72:4b:f1:57:77:8d:
                    11:86:19:67:4a:78:e3:ae:d5:f8:22:29:b9:47:e2:
                    51:a4:46:0d:4b:27:dd:e7:99:69:42:2d:61:d9:9f:
                    22:9d
                Exponent: 65537 (0x10001)
        X509v3 extensions:
            X509v3 Key Usage: critical
                Certificate Sign, CRL Sign
            X509v3 Basic Constraints: critical
                CA:TRUE, pathlen:0
            X509v3 Subject Key Identifier: 
                83:BA:16:EC:04:23:A7:40:34:8B:A0:3A:35:ED:CE:B6:E8:95:8E:2D
            X509v3 Authority Key Identifier: 
                keyid:EF:E5:01:87:C5:56:BA:C9:A1:35:54:C0:1D:83:11:77:4D:43:AE:93

            Authority Information Access: 
                CA Issuers - URI:http://example.com/ca/root.cer

            X509v3 CRL Distribution Points: 

                Full Name:
                  URI:http://example.com/ca/root.crl

    Signature Algorithm: sha256WithRSAEncryption
         50:dc:bc:50:4b:9a:c5:41:06:fe:af:9c:85:4d:4a:6f:e6:90:
         01:d3:dd:aa:64:4c:33:de:0f:2d:7a:12:d0:d7:58:ec:40:fe:
         47:d1:58:16:f4:25:77:a6:8d:0b:42:b2:42:45:07:7e:f2:8f:
         d1:95:0d:be:ae:04:96:5a:4f:49:86:62:b9:c5:7f:c0:63:2a:
         5e:2e:21:ef:ea:d9:0a:d1:47:48:27:19:84:9c:20:3c:cd:db:
         c5:0b:c3:ea:c8:1a:79:d7:12:61:b1:c2:bb:a2:c4:9e:d2:a1:
         78:4c:d4:67:ea:b3:14:a4:37:b1:60:76:38:91:35:3d:5e:2a:
         76:5c:ff:d1:3a:9d:b8:50:b0:47:a5:cc:dc:48:9b:f1:ce:19:
         70:f0:74:3a:e9:8e:cf:53:1b:fa:12:05:ed:85:cf:6e:7f:64:
         91:f0:11:a8:58:af:d5:b3:65:99:09:04:f2:bb:b4:36:ae:c2:
         e5:23:ad:20:7a:6a:2b:27:51:5e:9f:8b:ee:a0:0c:a8:84:ac:
         14:52:af:44:15:90:31:87:e8:c1:55:25:69:6b:08:ba:98:ae:
         fa:68:04:a1:09:f7:03:9b:ba:86:f4:12:3c:85:c9:ea:cf:eb:
         52:c3:10:66:8a:47:0d:e2:3f:e2:b5:68:ae:dc:8f:92:fa:0a:
         a7:bc:2d:b3
-----BEGIN CERTIFICATE-----
MIIEHDCCAwSgAwIBAgIBAjANBgkqhkiG9w0BAQsFADBhMQswCQYDVQQGEwJTRTEQ
MA4GA1UECgwHRXhhbXBsZTEmMCQGA1UECwwdRXhhbXBsZSBDZXJ0aWZpY2F0ZSBB
dXRob3JpdHkxGDAWBgNVBAMMD0V4YW1wbGUgUm9vdCBDQTAeFw0yMTExMjYxMTA5
NDZaFw0zMTExMjQxMTA5NDZaMGsxCzAJBgNVBAYTAlNFMRAwDgYDVQQKDAdFeGFt
cGxlMSYwJAYDVQQLDB1FeGFtcGxlIENlcnRpZmljYXRlIEF1dGhvcml0eTEiMCAG
A1UEAwwZRXhhbXBsZSBDbHVzdGVyIEF1dGhvcml0eTCCASIwDQYJKoZIhvcNAQEB
BQADggEPADCCAQoCggEBAM5DgbO5Nd63dsby95oXbU2kzUtN7alDNYXZfSFWQ/Xp
8/lFV6Hz8FRtZdSf5aL7XVVBq0iJITmyZjCF6apT3mZWRuEk91GCJ51AycPdBCb0
OI/QEjpnfE/QbUqFN6xXd6A0nktBhQ5BNvIFnCEbQFGJ49boiMKMfD0e69WMaR82
K+X6rcC7mOItKc4aNMt+G8dL8zYRtFsyVdRqGMS4aDQB9lUNjtftepxTkuVANrki
2KH2yPKnB8JWO3aEqQjD7h63ICpfaoJjLhKJ56oDynLIq7NlidixNqNGckvxV3eN
EYYZZ0p4467V+CIpuUfiUaRGDUsn3eeZaUItYdmfIp0CAwEAAaOB1DCB0TAOBgNV
HQ8BAf8EBAMCAQYwEgYDVR0TAQH/BAgwBgEB/wIBADAdBgNVHQ4EFgQUg7oW7AQj
p0A0i6A6Ne3OtuiVji0wHwYDVR0jBBgwFoAU7+UBh8VWusmhNVTAHYMRd01DrpMw
OgYIKwYBBQUHAQEELjAsMCoGCCsGAQUFBzAChh5odHRwOi8vZXhhbXBsZS5jb20v
Y2Evcm9vdC5jZXIwLwYDVR0fBCgwJjAkoCKgIIYeaHR0cDovL2V4YW1wbGUuY29t
L2NhL3Jvb3QuY3JsMA0GCSqGSIb3DQEBCwUAA4IBAQBQ3LxQS5rFQQb+r5yFTUpv
5pAB092qZEwz3g8tehLQ11jsQP5H0VgW9CV3po0LQrJCRQd+8o/RlQ2+rgSWWk9J
hmK5xX/AYypeLiHv6tkK0UdIJxmEnCA8zdvFC8PqyBp51xJhscK7osSe0qF4TNRn
6rMUpDexYHY4kTU9Xip2XP/ROp24ULBHpczcSJvxzhlw8HQ66Y7PUxv6EgXthc9u
f2SR8BGoWK/Vs2WZCQTyu7Q2rsLlI60gemorJ1Fen4vuoAyohKwUUq9EFZAxh+jB
VSVpawi6mK76aAShCfcDm7qG9BI8hcnqz+tSwxBmikcN4j/itWiu3I+S+gqnvC2z
-----END CERTIFICATE-----
