Certificate:
    Data:
        Version: 3 (0x2)
        Serial Number: 8 (0x8)
        Signature Algorithm: sha1WithRSAEncryption
        Issuer: C=SE, O=Example, OU=Example Certificate Authority, CN=Example Cluster Authority
        Validity
            Not Before: Jan  9 14:58:46 2024 GMT
            Not After : Jul  1 14:58:46 2029 GMT
        Subject: C=SE, O=Example, OU=Example Cluster, CN=Server 7
        Subject Public Key Info:
            Public Key Algorithm: rsaEncryption
                Public-Key: (2048 bit)
                Modulus:
                    00:b8:df:c9:89:81:65:26:29:2e:6b:74:15:d4:25:
                    d6:ec:2d:c9:f4:2e:ca:b4:62:1f:29:0a:44:8a:c5:
                    eb:62:f3:35:fd:84:a5:f0:67:3d:40:10:1b:fa:25:
                    34:a6:57:eb:0e:0f:04:47:1c:2b:37:cc:9c:0d:65:
                    aa:e7:87:bd:0b:3d:6b:ce:7a:93:c9:47:2e:a6:28:
                    40:96:c3:b2:2e:aa:e5:89:7c:c5:fa:9c:1a:14:5a:
                    34:4a:13:a9:fd:71:e7:d0:4c:2f:9b:68:b3:37:48:
                    fe:4d:cc:1a:af:fe:2a:35:9c:9a:49:16:29:3b:30:
                    6a:77:0b:ea:2e:63:84:0f:4f:25:56:1b:99:2f:a5:
                    32:10:56:59:4c:d1:78:19:f5:b3:ce:54:41:59:d1:
                    89:c0:4a:6e:5d:3b:f0:05:77:32:7d:02:f2:22:d3:
                    f1:2b:15:28:a4:ef:0d:26:32:b7:43:1c:a9:54:fb:
                    74:97:09:76:f3:66:65:3a:32:01:22:bc:d8:87:fb:
                    ae:e2:0f:8b:df:7a:3e:bb:86:1e:78:09:05:18:e9:
                    3e:22:d2:04:5c:32:f9:31:3c:07:ff:ce:97:d3:55:
                    6b:07:d1:9d:28:97:d0:66:90:31:1a:71:cb:95:c2:
                    69:bf:74:d0:5b:06:ea:a0:f2:b4:6a:74:d4:91:ac:
                    56:85
                Exponent: 65537 (0x10001)
        X509v3 extensions:
            X509v3 Key Usage: critical
                Digital Signature, Key Encipherment
            X509v3 Basic Constraints: 
                CA:FALSE
            X509v3 Extended Key Usage: 
                TLS Web Server Authentication, TLS Web Client Authentication
            X509v3 Subject Key Identifier: 
                36:41:6D:2B:33:FA:1C:8F:38:49:77:E7:9C:95:DC:65:B2:E8:FD:D8
            X509v3 Authority Key Identifier: 
                FE:6D:67:B0:11:E4:BB:CF:70:E0:75:A6:1C:21:33:83:15:32:5B:7B
            Authority Information Access: 
                CA Issuers - URI:http://example.com/ca/cluster.cer
            X509v3 CRL Distribution Points: 
                Full Name:
                  URI:http://example.com/ca/cluster.crl
            X509v3 Subject Alternative Name: 
                DNS:localhost
    Signature Algorithm: sha1WithRSAEncryption
    Signature Value:
        b2:b4:6e:65:bb:69:57:60:4e:30:3d:13:0e:e2:7f:07:03:63:
        0e:28:52:c7:ec:73:da:8c:22:a5:67:3e:43:a1:e1:b2:01:7d:
        2a:c6:43:2c:9d:b7:68:6a:e0:d5:c8:87:ce:b2:f2:f4:8d:f6:
        1b:d4:dc:94:38:13:fe:f0:ab:42:cb:13:10:53:41:f3:e6:74:
        58:bf:50:62:ad:94:89:a0:d5:4e:9a:c0:6f:15:13:d4:ea:df:
        2c:cb:e7:a2:ae:9f:f8:98:c1:0f:4b:83:17:44:1f:9e:dd:41:
        a4:5d:14:b7:86:97:88:42:76:e5:51:b3:a5:5c:ca:08:d9:fc:
        0e:e1:3d:58:20:79:eb:f1:ac:cd:84:b7:98:9f:5d:78:ba:7c:
        26:0e:04:3c:7c:a6:09:06:14:26:15:4d:03:86:75:59:76:73:
        7d:6b:69:96:49:b1:c5:d0:1a:88:46:d4:c0:7c:59:a1:e6:81:
        c1:c2:d2:12:05:61:37:7d:fc:19:4b:98:21:2e:13:7d:5d:11:
        e8:eb:80:0f:0b:3b:ba:d2:77:ee:d1:94:6a:1f:8d:30:8d:32:
        3d:31:9b:b0:0b:0a:12:e4:ff:77:c2:c3:56:3a:6b:fa:50:42:
        a6:78:31:75:5e:25:54:80:c3:71:36:03:4d:b7:e8:f0:03:55:
        6b:cc:e1:b9
-----BEGIN CERTIFICATE-----
MIIEOzCCAyOgAwIBAgIBCDANBgkqhkiG9w0BAQUFADBrMQswCQYDVQQGEwJTRTEQ
MA4GA1UECgwHRXhhbXBsZTEmMCQGA1UECwwdRXhhbXBsZSBDZXJ0aWZpY2F0ZSBB
dXRob3JpdHkxIjAgBgNVBAMMGUV4YW1wbGUgQ2x1c3RlciBBdXRob3JpdHkwHhcN
MjQwMTA5MTQ1ODQ2WhcNMjkwNzAxMTQ1ODQ2WjBMMQswCQYDVQQGEwJTRTEQMA4G
A1UECgwHRXhhbXBsZTEYMBYGA1UECwwPRXhhbXBsZSBDbHVzdGVyMREwDwYDVQQD
DAhTZXJ2ZXIgNzCCASIwDQYJKoZIhvcNAQEBBQADggEPADCCAQoCggEBALjfyYmB
ZSYpLmt0FdQl1uwtyfQuyrRiHykKRIrF62LzNf2EpfBnPUAQG/olNKZX6w4PBEcc
KzfMnA1lqueHvQs9a856k8lHLqYoQJbDsi6q5Yl8xfqcGhRaNEoTqf1x59BML5to
szdI/k3MGq/+KjWcmkkWKTswancL6i5jhA9PJVYbmS+lMhBWWUzReBn1s85UQVnR
icBKbl078AV3Mn0C8iLT8SsVKKTvDSYyt0McqVT7dJcJdvNmZToyASK82If7ruIP
i996PruGHngJBRjpPiLSBFwy+TE8B//Ol9NVawfRnSiX0GaQMRpxy5XCab900FsG
6qDytGp01JGsVoUCAwEAAaOCAQcwggEDMA4GA1UdDwEB/wQEAwIFoDAJBgNVHRME
AjAAMB0GA1UdJQQWMBQGCCsGAQUFBwMBBggrBgEFBQcDAjAdBgNVHQ4EFgQUNkFt
KzP6HI84SXfnnJXcZbLo/dgwHwYDVR0jBBgwFoAU/m1nsBHku89w4HWmHCEzgxUy
W3swPQYIKwYBBQUHAQEEMTAvMC0GCCsGAQUFBzAChiFodHRwOi8vZXhhbXBsZS5j
b20vY2EvY2x1c3Rlci5jZXIwMgYDVR0fBCswKTAnoCWgI4YhaHR0cDovL2V4YW1w
bGUuY29tL2NhL2NsdXN0ZXIuY3JsMBQGA1UdEQQNMAuCCWxvY2FsaG9zdDANBgkq
hkiG9w0BAQUFAAOCAQEAsrRuZbtpV2BOMD0TDuJ/BwNjDihSx+xz2owipWc+Q6Hh
sgF9KsZDLJ23aGrg1ciHzrLy9I32G9TclDgT/vCrQssTEFNB8+Z0WL9QYq2UiaDV
TprAbxUT1OrfLMvnoq6f+JjBD0uDF0Qfnt1BpF0Ut4aXiEJ25VGzpVzKCNn8DuE9
WCB56/GszYS3mJ9deLp8Jg4EPHymCQYUJhVNA4Z1WXZzfWtplkmxxdAaiEbUwHxZ
oeaBwcLSEgVhN338GUuYIS4TfV0R6OuADws7utJ37tGUah+NMI0yPTGbsAsKEuT/
d8LDVjpr+lBCpngxdV4lVIDDcTYDTbfo8ANVa8zhuQ==
-----END CERTIFICATE-----
