Certificate:
    Data:
        Version: 3 (0x2)
        Serial Number: 8 (0x8)
    Signature Algorithm: sha1WithRSAEncryption
        Issuer: C=SE, O=Example, OU=Example Certificate Authority, CN=Example Cluster Authority
        Validity
            Not Before: Jul  9 14:29:07 2018 GMT
            Not After : Dec 30 14:29:07 2023 GMT
        Subject: C=SE, O=Example, OU=Example Cluster, CN=Server 7
        Subject Public Key Info:
            Public Key Algorithm: rsaEncryption
                Public-Key: (2048 bit)
                Modulus:
                    00:b1:53:be:75:5c:26:e6:6e:56:d8:28:fe:a8:ed:
                    e3:44:f6:7c:77:0b:86:75:21:e2:64:47:7c:83:12:
                    b3:a4:7d:5c:c2:72:88:13:01:6a:8c:e5:b8:14:54:
                    17:97:93:ed:c0:7a:40:ff:4f:12:c8:6e:8a:6d:03:
                    e9:b1:47:7d:62:b9:20:99:01:4f:15:c2:c4:14:b5:
                    90:da:b2:4c:4b:42:6d:8e:ed:0f:b6:4c:64:ce:0e:
                    22:d2:8b:92:69:c6:16:da:25:27:e1:06:f5:2a:a0:
                    b1:e9:b9:1c:22:d9:12:7d:39:0c:7d:66:56:66:65:
                    2b:24:fc:ae:3c:98:d0:ab:e2:87:c0:96:88:f3:19:
                    86:9b:a2:09:c6:17:6d:02:25:47:f5:70:63:32:27:
                    50:8d:20:ad:1a:17:ae:34:07:9c:96:46:f3:d2:c4:
                    7d:50:34:d0:51:2a:de:d9:35:80:c7:51:a7:2d:e2:
                    c9:34:35:42:06:55:49:ea:35:c3:3b:7a:98:4c:c2:
                    12:56:39:dd:a0:39:73:6a:9f:6c:74:92:5e:09:09:
                    5f:1c:b8:e1:8d:43:01:05:46:c0:f2:6b:62:1b:34:
                    8a:70:db:39:d6:86:48:4f:d3:19:2c:d2:9a:53:89:
                    9f:b7:49:79:27:cc:32:9f:9a:ab:36:bd:c4:1b:ef:
                    ce:6f
                Exponent: 65537 (0x10001)
        X509v3 extensions:
            X509v3 Key Usage: critical
                Digital Signature, Key Encipherment
            X509v3 Basic Constraints: 
                CA:FALSE
            X509v3 Extended Key Usage: 
                TLS Web Server Authentication, TLS Web Client Authentication
            X509v3 Subject Key Identifier: 
                72:46:F0:74:61:1B:0B:ED:50:29:ED:B8:5C:D8:96:A7:1B:B4:4E:76
            X509v3 Authority Key Identifier: 
                keyid:BD:CD:52:9A:5A:3D:8A:10:85:DF:95:56:63:EE:2B:3A:74:74:E4:33

            Authority Information Access: 
                CA Issuers - URI:http://example.com/ca/cluster.cer

            X509v3 CRL Distribution Points: 

                Full Name:
                  URI:http://example.com/ca/cluster.crl

            X509v3 Subject Alternative Name: 
                DNS:localhost
    Signature Algorithm: sha1WithRSAEncryption
         62:53:43:3a:bf:eb:b5:c3:28:45:47:dd:af:0a:39:d4:24:74:
         c4:90:4f:5f:56:23:b9:0c:0b:0c:a8:2a:4f:e8:03:96:ea:31:
         22:43:af:e0:7e:a2:98:6d:e2:17:03:4d:64:7d:a3:a1:20:32:
         77:0e:1d:89:49:d7:85:c7:08:9b:bc:31:f7:04:0b:2d:74:e2:
         f8:a1:e9:df:4b:a0:f4:17:a8:a3:4f:49:89:90:fa:08:3e:6e:
         1e:1f:fa:9d:4c:94:a1:22:a2:23:77:d2:6b:32:85:a6:55:ff:
         3e:90:bc:b6:06:94:75:bf:d0:33:ed:cd:71:9c:1a:aa:57:a5:
         84:92:b1:13:f7:d3:d0:17:7a:c6:bd:25:02:e6:84:11:6d:d7:
         85:5e:f4:d6:45:9f:04:6e:4c:8c:12:d2:c8:6d:5b:e7:42:1a:
         2a:13:e9:df:3f:77:69:e6:75:46:b3:c5:fe:5c:86:6a:2d:34:
         7a:66:16:fc:70:86:8d:81:74:9a:a5:f5:bf:3e:b3:1d:f8:ce:
         9e:a4:98:5b:3d:84:7f:fb:3e:47:8a:ea:0b:f6:4f:66:cd:c6:
         8b:8f:c8:83:df:28:0f:15:72:23:59:4e:43:da:c7:cf:db:f4:
         fe:07:04:93:a4:21:9b:50:ef:a3:ba:6c:80:63:38:be:33:98:
         7c:8c:be:61
-----BEGIN CERTIFICATE-----
MIIEOzCCAyOgAwIBAgIBCDANBgkqhkiG9w0BAQUFADBrMQswCQYDVQQGEwJTRTEQ
MA4GA1UECgwHRXhhbXBsZTEmMCQGA1UECwwdRXhhbXBsZSBDZXJ0aWZpY2F0ZSBB
dXRob3JpdHkxIjAgBgNVBAMMGUV4YW1wbGUgQ2x1c3RlciBBdXRob3JpdHkwHhcN
MTgwNzA5MTQyOTA3WhcNMjMxMjMwMTQyOTA3WjBMMQswCQYDVQQGEwJTRTEQMA4G
A1UECgwHRXhhbXBsZTEYMBYGA1UECwwPRXhhbXBsZSBDbHVzdGVyMREwDwYDVQQD
DAhTZXJ2ZXIgNzCCASIwDQYJKoZIhvcNAQEBBQADggEPADCCAQoCggEBALFTvnVc
JuZuVtgo/qjt40T2fHcLhnUh4mRHfIMSs6R9XMJyiBMBaozluBRUF5eT7cB6QP9P
Eshuim0D6bFHfWK5IJkBTxXCxBS1kNqyTEtCbY7tD7ZMZM4OItKLkmnGFtolJ+EG
9Sqgsem5HCLZEn05DH1mVmZlKyT8rjyY0Kvih8CWiPMZhpuiCcYXbQIlR/VwYzIn
UI0grRoXrjQHnJZG89LEfVA00FEq3tk1gMdRpy3iyTQ1QgZVSeo1wzt6mEzCElY5
3aA5c2qfbHSSXgkJXxy44Y1DAQVGwPJrYhs0inDbOdaGSE/TGSzSmlOJn7dJeSfM
Mp+aqza9xBvvzm8CAwEAAaOCAQcwggEDMA4GA1UdDwEB/wQEAwIFoDAJBgNVHRME
AjAAMB0GA1UdJQQWMBQGCCsGAQUFBwMBBggrBgEFBQcDAjAdBgNVHQ4EFgQUckbw
dGEbC+1QKe24XNiWpxu0TnYwHwYDVR0jBBgwFoAUvc1Smlo9ihCF35VWY+4rOnR0
5DMwPQYIKwYBBQUHAQEEMTAvMC0GCCsGAQUFBzAChiFodHRwOi8vZXhhbXBsZS5j
b20vY2EvY2x1c3Rlci5jZXIwMgYDVR0fBCswKTAnoCWgI4YhaHR0cDovL2V4YW1w
bGUuY29tL2NhL2NsdXN0ZXIuY3JsMBQGA1UdEQQNMAuCCWxvY2FsaG9zdDANBgkq
hkiG9w0BAQUFAAOCAQEAYlNDOr/rtcMoRUfdrwo51CR0xJBPX1YjuQwLDKgqT+gD
luoxIkOv4H6imG3iFwNNZH2joSAydw4diUnXhccIm7wx9wQLLXTi+KHp30ug9Beo
o09JiZD6CD5uHh/6nUyUoSKiI3fSazKFplX/PpC8tgaUdb/QM+3NcZwaqlelhJKx
E/fT0Bd6xr0lAuaEEW3XhV701kWfBG5MjBLSyG1b50IaKhPp3z93aeZ1RrPF/lyG
ai00emYW/HCGjYF0mqX1vz6zHfjOnqSYWz2Ef/s+R4rqC/ZPZs3Gi4/Ig98oDxVy
I1lOQ9rHz9v0/gcEk6Qhm1Dvo7psgGM4vjOYfIy+YQ==
-----END CERTIFICATE-----
