Certificate:
    Data:
        Version: 3 (0x2)
        Serial Number: 14895342359247964531 (0xceb6e2f4f2cdc973)
    Signature Algorithm: sha1WithRSAEncryption
        Issuer: C=SE, ST=Malm\xC3\x83\xC2\xB6, L=Malm\xC3\x83\xC2\xB6, O=Neo Technology, CN=intermediate.neo4j.org/emailAddress=intermediate@neo4j.org
        Validity
            Not Before: May 12 11:16:37 2013 GMT
            Not After : Apr 18 11:16:37 2113 GMT
        Subject: C=SE, ST=Malm\xC3\x83\xC2\xB6, L=Malm\xC3\x83\xC2\xB6, O=Neo Technology, CN=chained.neo4j.org/emailAddress=chained@neo4j.org
        Subject Public Key Info:
            Public Key Algorithm: rsaEncryption
                Public-Key: (2048 bit)
                Modulus:
                    00:cd:6d:d3:b2:02:e4:6e:0e:8e:9b:6c:2a:82:49:
                    bb:80:23:79:63:cc:c4:a0:e2:7d:5b:36:50:70:42:
                    b1:d6:ed:54:64:19:c9:5e:38:8d:9c:5c:00:aa:f1:
                    ea:fb:cb:6f:d1:9c:0a:4a:68:ac:e8:a9:63:3f:9a:
                    5e:62:3f:f1:2f:bd:e7:e4:9e:a4:dc:f4:68:b6:bf:
                    12:95:f4:24:ba:d6:c3:33:e9:3e:b1:f0:4c:67:b5:
                    94:2c:12:08:4c:b3:17:8f:25:4b:da:fd:2b:c1:be:
                    13:4e:8b:fe:0d:8a:ce:db:2c:30:ba:8b:0e:e8:43:
                    fe:5a:4a:50:de:42:61:4f:52:77:5d:5f:78:30:c5:
                    16:6a:de:d1:26:00:bd:4e:b8:9f:34:b5:b0:30:29:
                    0b:3e:4c:58:4c:de:4a:b4:27:a8:53:3c:98:8b:3c:
                    78:50:c8:2c:13:64:a5:9d:71:bb:ef:3d:26:14:13:
                    d2:95:9e:fd:31:ef:08:f5:73:9d:92:c7:83:20:e8:
                    9b:59:36:4b:ef:8c:6a:c9:d9:7e:d6:16:71:52:8a:
                    64:07:36:6c:aa:b1:41:fa:d8:16:f4:7d:40:39:6f:
                    dd:6c:f6:5c:bb:b6:93:58:1b:45:f6:63:5f:20:d1:
                    a9:d0:4c:42:39:1f:2d:2a:65:fa:67:f3:34:f0:99:
                    92:6b
                Exponent: 65537 (0x10001)
        X509v3 extensions:
            X509v3 Basic Constraints: 
                CA:FALSE
            Netscape Comment: 
                OpenSSL Generated Certificate
            X509v3 Subject Key Identifier: 
                C2:27:B5:24:68:81:C8:45:74:D9:CE:8D:31:4B:2D:B8:3F:54:C8:1B
            X509v3 Authority Key Identifier: 
                DirName:/C=SE/ST=Malm\xC3\x83\xC2\xB6/O=Neo Technology/CN=ca.neo4j.org/emailAddress=ca@neo4j.org
                serial:CE:B6:E2:F4:F2:CD:C9:72

    Signature Algorithm: sha1WithRSAEncryption
         c5:6c:36:28:d6:c7:b2:f4:07:67:e9:94:84:44:d1:04:9d:74:
         fe:59:84:3e:38:0d:59:a1:09:23:86:2e:3a:2a:0a:b4:7c:bc:
         95:61:1f:fa:4d:f7:36:4b:7c:54:c5:52:15:51:9d:60:f6:47:
         79:9c:4c:84:ac:33:ba:b8:74:1d:3c:1b:6a:c8:92:70:1d:2f:
         b2:5d:20:e4:d8:bc:14:f8:a9:a4:5f:b9:bf:ef:09:fa:31:02:
         2d:09:ce:50:c5:68:a7:d3:24:06:e5:da:88:cf:9d:9d:3b:c3:
         9e:fe:af:eb:67:16:0c:f1:a7:2a:17:2f:8e:7a:5b:7b:de:b5:
         51:77:48:eb:d0:f4:7f:46:30:2f:76:25:32:c0:bb:8e:92:08:
         34:0f:f6:65:9c:d8:78:12:a9:ca:41:2a:b0:f0:8c:35:98:38:
         4b:0e:86:5f:01:2b:74:6e:44:c2:0d:38:f5:ba:cf:ee:04:96:
         c4:e9:f5:b2:dd:92:7c:fa:6e:b5:63:4b:eb:3e:38:c2:5d:9b:
         66:4a:f1:c7:c6:44:fc:26:3e:85:59:2d:34:92:c6:19:8f:c9:
         8b:a5:a6:fb:b2:6d:94:fd:c0:8b:3b:1f:b6:ef:af:b5:2e:84:
         ff:73:5f:3b:1e:d3:ff:15:82:e7:dd:be:48:45:7d:ba:ba:b5:
         43:94:67:f9
-----BEGIN CERTIFICATE-----
MIIEjDCCA3SgAwIBAgIJAM624vTyzclzMA0GCSqGSIb3DQEBBQUAMIGUMQswCQYD
VQQGEwJTRTERMA8GA1UECAwITWFsbcODwrYxETAPBgNVBAcMCE1hbG3Dg8K2MRcw
FQYDVQQKDA5OZW8gVGVjaG5vbG9neTEfMB0GA1UEAwwWaW50ZXJtZWRpYXRlLm5l
bzRqLm9yZzElMCMGCSqGSIb3DQEJARYWaW50ZXJtZWRpYXRlQG5lbzRqLm9yZzAg
Fw0xMzA1MTIxMTE2MzdaGA8yMTEzMDQxODExMTYzN1owgYoxCzAJBgNVBAYTAlNF
MREwDwYDVQQIDAhNYWxtw4PCtjERMA8GA1UEBwwITWFsbcODwrYxFzAVBgNVBAoM
Dk5lbyBUZWNobm9sb2d5MRowGAYDVQQDDBFjaGFpbmVkLm5lbzRqLm9yZzEgMB4G
CSqGSIb3DQEJARYRY2hhaW5lZEBuZW80ai5vcmcwggEiMA0GCSqGSIb3DQEBAQUA
A4IBDwAwggEKAoIBAQDNbdOyAuRuDo6bbCqCSbuAI3ljzMSg4n1bNlBwQrHW7VRk
GcleOI2cXACq8er7y2/RnApKaKzoqWM/ml5iP/EvvefknqTc9Gi2vxKV9CS61sMz
6T6x8ExntZQsEghMsxePJUva/SvBvhNOi/4Nis7bLDC6iw7oQ/5aSlDeQmFPUndd
X3gwxRZq3tEmAL1OuJ80tbAwKQs+TFhM3kq0J6hTPJiLPHhQyCwTZKWdcbvvPSYU
E9KVnv0x7wj1c52Sx4Mg6JtZNkvvjGrJ2X7WFnFSimQHNmyqsUH62Bb0fUA5b91s
9ly7tpNYG0X2Y18g0anQTEI5Hy0qZfpn8zTwmZJrAgMBAAGjgeYwgeMwCQYDVR0T
BAIwADAsBglghkgBhvhCAQ0EHxYdT3BlblNTTCBHZW5lcmF0ZWQgQ2VydGlmaWNh
dGUwHQYDVR0OBBYEFMIntSRogchFdNnOjTFLLbg/VMgbMIGIBgNVHSMEgYAwfqFx
pG8wbTELMAkGA1UEBhMCU0UxETAPBgNVBAgMCE1hbG3Dg8K2MRcwFQYDVQQKDA5O
ZW8gVGVjaG5vbG9neTEVMBMGA1UEAwwMY2EubmVvNGoub3JnMRswGQYJKoZIhvcN
AQkBFgxjYUBuZW80ai5vcmeCCQDOtuL08s3JcjANBgkqhkiG9w0BAQUFAAOCAQEA
xWw2KNbHsvQHZ+mUhETRBJ10/lmEPjgNWaEJI4YuOioKtHy8lWEf+k33Nkt8VMVS
FVGdYPZHeZxMhKwzurh0HTwbasiScB0vsl0g5Ni8FPippF+5v+8J+jECLQnOUMVo
p9MkBuXaiM+dnTvDnv6v62cWDPGnKhcvjnpbe961UXdI69D0f0YwL3YlMsC7jpII
NA/2ZZzYeBKpykEqsPCMNZg4Sw6GXwErdG5Ewg049brP7gSWxOn1st2SfPputWNL
6z44wl2bZkrxx8ZE/CY+hVktNJLGGY/Ji6Wm+7JtlP3Aizsftu+vtS6E/3NfOx7T
/xWC592+SEV9urq1Q5Rn+Q==
-----END CERTIFICATE-----
