Certificate:
    Data:
        Version: 3 (0x2)
        Serial Number: 7 (0x7)
        Signature Algorithm: sha1WithRSAEncryption
        Issuer: C=SE, O=Example, OU=Example Certificate Authority, CN=Example Cluster Authority
        Validity
            Not Before: Jan  9 14:58:46 2024 GMT
            Not After : Jul  1 14:58:46 2029 GMT
        Subject: C=SE, O=Example, OU=Example Cluster, CN=Server 6
        Subject Public Key Info:
            Public Key Algorithm: rsaEncryption
                Public-Key: (2048 bit)
                Modulus:
                    00:a2:73:2b:e6:58:9c:6e:77:62:77:85:75:c8:95:
                    50:e0:0c:cb:ad:44:20:5e:79:b6:1f:e6:e1:61:8b:
                    22:7e:26:fe:28:3c:09:fb:a1:ac:91:fa:4b:0c:97:
                    ce:38:30:38:aa:91:f8:eb:0b:81:bb:11:c9:c7:ab:
                    54:25:53:13:37:fb:e7:7e:d9:04:57:4a:9e:97:6e:
                    97:ef:1e:17:65:a1:ac:58:ca:dc:97:c3:f3:73:b4:
                    f6:56:01:47:77:33:34:88:13:cf:f9:48:ac:19:13:
                    db:d2:91:40:e1:e2:0e:d8:e4:9c:00:3a:46:2f:e8:
                    b7:6b:ab:d4:dd:80:7d:a7:bd:74:6d:03:87:5e:15:
                    ae:ec:92:d6:87:5c:e6:66:59:71:1c:39:c7:15:a7:
                    fe:21:ef:43:ff:83:22:3b:39:2a:36:09:e3:58:29:
                    b6:59:84:bf:d2:50:52:3a:b8:9e:98:65:bb:12:98:
                    b5:8c:57:d9:af:df:13:87:f6:0b:90:d7:b0:a5:59:
                    af:20:f8:4a:50:84:32:bf:2e:53:98:6e:8a:13:33:
                    bc:24:60:aa:23:84:9c:f8:c2:b9:db:7a:d7:9b:07:
                    3a:c5:12:aa:71:54:b1:b5:8e:f9:d3:5e:66:c6:ec:
                    cb:23:e5:cf:6a:2d:9d:e4:d8:a4:01:56:c9:d6:9c:
                    ee:b3
                Exponent: 65537 (0x10001)
        X509v3 extensions:
            X509v3 Key Usage: critical
                Digital Signature, Key Encipherment
            X509v3 Basic Constraints: 
                CA:FALSE
            X509v3 Extended Key Usage: 
                TLS Web Server Authentication, TLS Web Client Authentication
            X509v3 Subject Key Identifier: 
                F8:34:2E:68:8F:E8:67:86:DF:D4:46:49:3A:22:9F:34:B8:C4:5E:B8
            X509v3 Authority Key Identifier: 
                FE:6D:67:B0:11:E4:BB:CF:70:E0:75:A6:1C:21:33:83:15:32:5B:7B
            Authority Information Access: 
                CA Issuers - URI:http://example.com/ca/cluster.cer
            X509v3 CRL Distribution Points: 
                Full Name:
                  URI:http://example.com/ca/cluster.crl
            X509v3 Subject Alternative Name: 
                DNS:localhost
    Signature Algorithm: sha1WithRSAEncryption
    Signature Value:
        4f:49:0d:78:db:45:3e:e2:54:c0:9a:17:1e:e8:24:71:56:b2:
        99:7a:de:61:37:f1:c9:0d:54:7d:55:81:d2:79:75:e3:fe:2d:
        fb:67:9f:09:f2:52:c6:ac:a3:85:57:44:5e:90:56:b5:95:4b:
        95:97:b0:c1:85:81:ba:c6:f9:ae:dd:71:5e:a3:36:4b:bd:bd:
        b4:97:2a:1e:f6:0c:9f:c6:27:a0:62:52:23:0c:f8:02:2c:35:
        7c:2b:ae:5b:f9:57:ee:cd:c8:54:2b:a9:96:27:08:47:13:39:
        e9:5d:79:1b:f2:5c:79:64:ad:60:43:75:72:79:1b:a2:67:d1:
        3f:e8:83:fc:71:9a:2b:78:92:ae:29:59:38:ad:b3:df:a8:f5:
        f4:16:b5:ea:6b:92:e7:3c:05:f0:65:40:b5:49:5b:15:24:95:
        4c:c8:b0:e8:a8:66:9e:39:f4:18:02:f7:68:25:42:7c:f8:e2:
        4d:20:61:35:86:9f:88:04:ec:d7:62:3c:72:32:ca:21:04:0c:
        32:0b:9b:55:96:d2:bf:79:27:42:ae:bb:81:8b:45:16:c0:ea:
        2f:a8:d2:d9:20:72:15:e9:55:92:a8:1d:f7:c7:69:0f:e5:c2:
        12:32:e8:8d:a4:b3:76:42:4f:99:e2:c8:51:be:12:07:ae:19:
        12:26:1a:88
-----BEGIN CERTIFICATE-----
MIIEOzCCAyOgAwIBAgIBBzANBgkqhkiG9w0BAQUFADBrMQswCQYDVQQGEwJTRTEQ
MA4GA1UECgwHRXhhbXBsZTEmMCQGA1UECwwdRXhhbXBsZSBDZXJ0aWZpY2F0ZSBB
dXRob3JpdHkxIjAgBgNVBAMMGUV4YW1wbGUgQ2x1c3RlciBBdXRob3JpdHkwHhcN
MjQwMTA5MTQ1ODQ2WhcNMjkwNzAxMTQ1ODQ2WjBMMQswCQYDVQQGEwJTRTEQMA4G
A1UECgwHRXhhbXBsZTEYMBYGA1UECwwPRXhhbXBsZSBDbHVzdGVyMREwDwYDVQQD
DAhTZXJ2ZXIgNjCCASIwDQYJKoZIhvcNAQEBBQADggEPADCCAQoCggEBAKJzK+ZY
nG53YneFdciVUOAMy61EIF55th/m4WGLIn4m/ig8CfuhrJH6SwyXzjgwOKqR+OsL
gbsRycerVCVTEzf7537ZBFdKnpdul+8eF2WhrFjK3JfD83O09lYBR3czNIgTz/lI
rBkT29KRQOHiDtjknAA6Ri/ot2ur1N2Afae9dG0Dh14VruyS1odc5mZZcRw5xxWn
/iHvQ/+DIjs5KjYJ41gptlmEv9JQUjq4nphluxKYtYxX2a/fE4f2C5DXsKVZryD4
SlCEMr8uU5huihMzvCRgqiOEnPjCudt615sHOsUSqnFUsbWO+dNeZsbsyyPlz2ot
neTYpAFWydac7rMCAwEAAaOCAQcwggEDMA4GA1UdDwEB/wQEAwIFoDAJBgNVHRME
AjAAMB0GA1UdJQQWMBQGCCsGAQUFBwMBBggrBgEFBQcDAjAdBgNVHQ4EFgQU+DQu
aI/oZ4bf1EZJOiKfNLjEXrgwHwYDVR0jBBgwFoAU/m1nsBHku89w4HWmHCEzgxUy
W3swPQYIKwYBBQUHAQEEMTAvMC0GCCsGAQUFBzAChiFodHRwOi8vZXhhbXBsZS5j
b20vY2EvY2x1c3Rlci5jZXIwMgYDVR0fBCswKTAnoCWgI4YhaHR0cDovL2V4YW1w
bGUuY29tL2NhL2NsdXN0ZXIuY3JsMBQGA1UdEQQNMAuCCWxvY2FsaG9zdDANBgkq
hkiG9w0BAQUFAAOCAQEAT0kNeNtFPuJUwJoXHugkcVaymXreYTfxyQ1UfVWB0nl1
4/4t+2efCfJSxqyjhVdEXpBWtZVLlZewwYWBusb5rt1xXqM2S729tJcqHvYMn8Yn
oGJSIwz4Aiw1fCuuW/lX7s3IVCuplicIRxM56V15G/JceWStYEN1cnkbomfRP+iD
/HGaK3iSrilZOK2z36j19Ba16muS5zwF8GVAtUlbFSSVTMiw6Khmnjn0GAL3aCVC
fPjiTSBhNYafiATs12I8cjLKIQQMMgubVZbSv3knQq67gYtFFsDqL6jS2SByFelV
kqgd98dpD+XCEjLojaSzdkJPmeLIUb4SB64ZEiYaiA==
-----END CERTIFICATE-----
