Certificate:
    Data:
        Version: 3 (0x2)
        Serial Number: 7 (0x7)
    Signature Algorithm: sha1WithRSAEncryption
        Issuer: C=SE, O=Example, OU=Example Certificate Authority, CN=Example Cluster Authority
        Validity
            Not Before: Jul  9 14:29:07 2018 GMT
            Not After : Dec 30 14:29:07 2023 GMT
        Subject: C=SE, O=Example, OU=Example Cluster, CN=Server 6
        Subject Public Key Info:
            Public Key Algorithm: rsaEncryption
                Public-Key: (2048 bit)
                Modulus:
                    00:c1:d8:59:b4:a7:bc:ba:2b:97:64:b6:f5:91:be:
                    8d:e8:ec:7e:31:e5:e5:da:eb:6d:e0:9a:2e:dd:08:
                    40:23:f3:3c:58:f5:64:a2:75:c0:85:a1:52:8b:fa:
                    b5:0e:4d:32:3d:ce:36:c7:04:3b:84:e2:a0:c8:75:
                    5f:09:20:0e:6e:84:47:04:9b:04:52:c1:56:4b:e5:
                    9b:e0:78:e3:ba:cf:09:84:29:fd:d4:22:fb:62:db:
                    0c:cb:f0:36:e3:42:b2:96:88:51:ab:72:c4:04:5e:
                    19:12:f9:e5:14:51:c1:ca:8d:c8:53:1a:d7:67:89:
                    97:50:1e:70:72:08:4b:c4:5e:3a:c7:fa:0a:90:a4:
                    6c:ff:03:85:36:d1:10:13:e1:9d:e6:96:91:3c:d1:
                    ee:c8:f6:cc:b5:ce:ed:22:67:ac:f6:40:2e:fc:f4:
                    8d:8b:70:e8:8c:ce:47:2f:0c:a4:6c:9d:d2:0a:93:
                    d9:dc:ea:01:d5:32:6d:02:78:cc:36:16:8e:bf:bf:
                    b7:57:7f:07:a0:e7:ec:f1:af:ab:08:e4:03:e6:43:
                    90:ca:00:f2:08:bd:41:14:f4:e9:5f:b8:f7:ec:11:
                    b2:27:df:73:d2:e9:6f:0d:fe:68:85:48:a1:da:9a:
                    75:2b:3b:50:50:e6:77:91:33:bb:b2:e2:a5:f5:12:
                    e7:71
                Exponent: 65537 (0x10001)
        X509v3 extensions:
            X509v3 Key Usage: critical
                Digital Signature, Key Encipherment
            X509v3 Basic Constraints: 
                CA:FALSE
            X509v3 Extended Key Usage: 
                TLS Web Server Authentication, TLS Web Client Authentication
            X509v3 Subject Key Identifier: 
                16:C8:C1:BF:1C:4B:3F:DE:3A:8D:68:E2:86:86:83:84:73:A5:77:A7
            X509v3 Authority Key Identifier: 
                keyid:BD:CD:52:9A:5A:3D:8A:10:85:DF:95:56:63:EE:2B:3A:74:74:E4:33

            Authority Information Access: 
                CA Issuers - URI:http://example.com/ca/cluster.cer

            X509v3 CRL Distribution Points: 

                Full Name:
                  URI:http://example.com/ca/cluster.crl

            X509v3 Subject Alternative Name: 
                DNS:localhost
    Signature Algorithm: sha1WithRSAEncryption
         9e:e3:31:54:58:a3:ef:39:6b:c6:68:67:e6:ab:e2:c8:11:ec:
         6c:92:c9:d4:59:14:6d:26:d1:88:1a:7f:d0:72:0f:cd:e0:f1:
         d8:22:31:41:be:26:6c:5b:d0:d6:07:a5:69:83:56:4d:4c:60:
         9e:29:03:02:3b:53:45:70:5e:b1:b0:5a:a1:e9:b2:fe:47:e0:
         d0:d2:5b:4c:6a:7d:81:44:b8:7e:cc:1a:6f:79:53:f6:e7:5b:
         1f:81:50:88:e8:d0:6f:7c:b8:cd:2a:c7:db:71:39:ed:1d:c7:
         bf:94:25:31:66:81:22:c9:db:e6:1f:fd:4f:2a:32:41:87:dc:
         2b:11:e3:99:62:0a:cb:d3:25:6e:e5:c7:0e:9c:f3:5b:41:4c:
         af:61:a8:7f:70:11:c5:90:a7:b2:4a:76:2a:02:cb:02:0d:97:
         bd:32:b1:6a:df:5d:4f:14:8e:b1:4d:57:c8:f0:17:6d:e6:e4:
         cc:16:34:9c:be:32:9f:89:d7:76:78:20:a4:68:83:46:5a:f6:
         a2:c1:92:cd:44:93:a1:43:06:a4:6f:32:3b:4f:4c:2d:e0:0f:
         bd:4b:29:30:0e:ec:7a:be:9e:df:fb:ae:a4:5b:9a:1c:ab:b5:
         71:9d:da:33:8c:eb:2c:38:4d:0a:ac:c2:f3:64:e6:89:32:3e:
         23:1d:ee:96
-----BEGIN CERTIFICATE-----
MIIEOzCCAyOgAwIBAgIBBzANBgkqhkiG9w0BAQUFADBrMQswCQYDVQQGEwJTRTEQ
MA4GA1UECgwHRXhhbXBsZTEmMCQGA1UECwwdRXhhbXBsZSBDZXJ0aWZpY2F0ZSBB
dXRob3JpdHkxIjAgBgNVBAMMGUV4YW1wbGUgQ2x1c3RlciBBdXRob3JpdHkwHhcN
MTgwNzA5MTQyOTA3WhcNMjMxMjMwMTQyOTA3WjBMMQswCQYDVQQGEwJTRTEQMA4G
A1UECgwHRXhhbXBsZTEYMBYGA1UECwwPRXhhbXBsZSBDbHVzdGVyMREwDwYDVQQD
DAhTZXJ2ZXIgNjCCASIwDQYJKoZIhvcNAQEBBQADggEPADCCAQoCggEBAMHYWbSn
vLorl2S29ZG+jejsfjHl5drrbeCaLt0IQCPzPFj1ZKJ1wIWhUov6tQ5NMj3ONscE
O4TioMh1XwkgDm6ERwSbBFLBVkvlm+B447rPCYQp/dQi+2LbDMvwNuNCspaIUaty
xAReGRL55RRRwcqNyFMa12eJl1AecHIIS8ReOsf6CpCkbP8DhTbREBPhneaWkTzR
7sj2zLXO7SJnrPZALvz0jYtw6IzORy8MpGyd0gqT2dzqAdUybQJ4zDYWjr+/t1d/
B6Dn7PGvqwjkA+ZDkMoA8gi9QRT06V+49+wRsiffc9Lpbw3+aIVIodqadSs7UFDm
d5Ezu7LipfUS53ECAwEAAaOCAQcwggEDMA4GA1UdDwEB/wQEAwIFoDAJBgNVHRME
AjAAMB0GA1UdJQQWMBQGCCsGAQUFBwMBBggrBgEFBQcDAjAdBgNVHQ4EFgQUFsjB
vxxLP946jWjihoaDhHOld6cwHwYDVR0jBBgwFoAUvc1Smlo9ihCF35VWY+4rOnR0
5DMwPQYIKwYBBQUHAQEEMTAvMC0GCCsGAQUFBzAChiFodHRwOi8vZXhhbXBsZS5j
b20vY2EvY2x1c3Rlci5jZXIwMgYDVR0fBCswKTAnoCWgI4YhaHR0cDovL2V4YW1w
bGUuY29tL2NhL2NsdXN0ZXIuY3JsMBQGA1UdEQQNMAuCCWxvY2FsaG9zdDANBgkq
hkiG9w0BAQUFAAOCAQEAnuMxVFij7zlrxmhn5qviyBHsbJLJ1FkUbSbRiBp/0HIP
zeDx2CIxQb4mbFvQ1gelaYNWTUxgnikDAjtTRXBesbBaoemy/kfg0NJbTGp9gUS4
fswab3lT9udbH4FQiOjQb3y4zSrH23E57R3Hv5QlMWaBIsnb5h/9TyoyQYfcKxHj
mWIKy9MlbuXHDpzzW0FMr2Gof3ARxZCnskp2KgLLAg2XvTKxat9dTxSOsU1XyPAX
bebkzBY0nL4yn4nXdnggpGiDRlr2osGSzUSToUMGpG8yO09MLeAPvUspMA7ser6e
3/uupFuaHKu1cZ3aM4zrLDhNCqzC82TmiTI+Ix3ulg==
-----END CERTIFICATE-----
