Certificate:
    Data:
        Version: 3 (0x2)
        Serial Number: 12 (0xc)
        Signature Algorithm: sha1WithRSAEncryption
        Issuer: C=SE, O=Example, OU=Example Certificate Authority, CN=Example Cluster Authority
        Validity
            Not Before: Jan  9 14:58:47 2024 GMT
            Not After : Jul  1 14:58:47 2029 GMT
        Subject: C=SE, O=Example, OU=Example Cluster, CN=Server 11
        Subject Public Key Info:
            Public Key Algorithm: rsaEncryption
                Public-Key: (2048 bit)
                Modulus:
                    00:87:7c:29:fb:e6:fb:9a:2f:6a:31:b4:c5:6a:74:
                    86:27:e7:ec:52:02:11:51:23:76:cd:59:1a:0d:64:
                    e7:fd:68:04:b5:1f:c9:d8:9f:01:a9:1d:e0:40:fe:
                    bc:f5:a3:9d:18:7f:04:d3:87:a8:d5:30:93:62:53:
                    f9:f3:e6:d5:14:e1:ab:31:6f:97:91:60:dd:a0:8f:
                    5b:05:c3:a1:c8:14:75:50:02:64:c0:a6:87:97:04:
                    20:ed:19:81:fd:a2:45:1f:bf:ef:2e:30:2c:25:27:
                    c0:0b:f9:a2:ad:4d:49:38:bb:1a:a3:36:d1:9f:84:
                    a9:d4:ea:b7:e2:c4:b8:49:11:16:67:c9:e2:7f:44:
                    db:1a:e4:12:3d:2d:4e:66:72:f6:89:5b:17:85:af:
                    95:76:27:88:9b:68:0b:fd:68:28:d9:e7:33:bf:31:
                    90:f7:83:47:ec:5e:47:63:e1:4c:03:2b:d7:99:e9:
                    9d:bc:3d:85:46:21:cc:be:84:ca:88:73:19:4e:23:
                    cf:c2:48:33:f2:54:ec:f6:1d:92:b2:51:a6:f3:f0:
                    09:69:3f:1d:a6:91:91:05:f8:16:b1:cb:25:8b:6b:
                    e4:1e:1f:7b:76:b1:bb:89:89:02:ae:0a:58:c8:5b:
                    b3:a1:9b:d1:9c:2f:05:f5:19:fe:1d:69:68:5a:39:
                    5e:c9
                Exponent: 65537 (0x10001)
        X509v3 extensions:
            X509v3 Key Usage: critical
                Digital Signature, Key Encipherment
            X509v3 Basic Constraints: 
                CA:FALSE
            X509v3 Extended Key Usage: 
                TLS Web Server Authentication, TLS Web Client Authentication
            X509v3 Subject Key Identifier: 
                84:C9:D5:47:0D:5A:7F:3F:DF:09:99:A1:DE:D3:56:6B:A7:1C:EE:61
            X509v3 Authority Key Identifier: 
                FE:6D:67:B0:11:E4:BB:CF:70:E0:75:A6:1C:21:33:83:15:32:5B:7B
            Authority Information Access: 
                CA Issuers - URI:http://example.com/ca/cluster.cer
            X509v3 CRL Distribution Points: 
                Full Name:
                  URI:http://example.com/ca/cluster.crl
            X509v3 Subject Alternative Name: 
                DNS:localhost
    Signature Algorithm: sha1WithRSAEncryption
    Signature Value:
        12:db:ef:da:51:a5:c5:3a:c1:c2:46:b3:99:fa:7d:0d:93:85:
        22:38:6b:ac:41:fa:ab:54:b6:e7:09:3b:1b:e2:23:70:68:17:
        e8:45:12:f8:cb:b6:6f:47:f5:02:13:bc:c4:e7:dd:0a:8e:d0:
        de:fd:0f:30:49:45:a3:b9:d4:f8:8e:29:b4:88:b6:49:e0:08:
        66:b7:8f:30:33:41:ec:e3:77:27:13:33:bf:ba:f2:f8:da:51:
        78:d8:d7:be:a4:88:94:80:97:67:39:61:f8:8d:ac:d9:68:bb:
        e2:51:4a:86:d8:06:48:98:99:f0:a9:41:3b:ab:58:6a:ae:41:
        82:c2:34:0a:8e:98:1b:5c:b7:be:d1:9e:94:57:61:0c:ce:e9:
        fd:a1:1a:7b:f4:4b:fe:0d:4b:b3:13:8b:a0:77:7e:6b:8a:de:
        45:bd:ae:74:e2:9a:17:d7:83:b1:56:09:23:66:0c:57:7b:21:
        91:c4:26:e7:85:70:5d:86:76:43:d9:2c:12:5b:c2:39:1a:fb:
        ac:08:a7:f3:4e:da:92:07:73:ba:78:84:e3:f0:f0:a9:65:9d:
        6a:9e:db:bd:93:01:d2:1c:17:37:22:34:f8:e6:16:8e:04:db:
        c3:d0:89:1b:19:65:fe:02:d6:4b:62:44:bb:f2:f8:7f:7e:05:
        1b:12:a1:e1
-----BEGIN CERTIFICATE-----
MIIEPDCCAySgAwIBAgIBDDANBgkqhkiG9w0BAQUFADBrMQswCQYDVQQGEwJTRTEQ
MA4GA1UECgwHRXhhbXBsZTEmMCQGA1UECwwdRXhhbXBsZSBDZXJ0aWZpY2F0ZSBB
dXRob3JpdHkxIjAgBgNVBAMMGUV4YW1wbGUgQ2x1c3RlciBBdXRob3JpdHkwHhcN
MjQwMTA5MTQ1ODQ3WhcNMjkwNzAxMTQ1ODQ3WjBNMQswCQYDVQQGEwJTRTEQMA4G
A1UECgwHRXhhbXBsZTEYMBYGA1UECwwPRXhhbXBsZSBDbHVzdGVyMRIwEAYDVQQD
DAlTZXJ2ZXIgMTEwggEiMA0GCSqGSIb3DQEBAQUAA4IBDwAwggEKAoIBAQCHfCn7
5vuaL2oxtMVqdIYn5+xSAhFRI3bNWRoNZOf9aAS1H8nYnwGpHeBA/rz1o50YfwTT
h6jVMJNiU/nz5tUU4asxb5eRYN2gj1sFw6HIFHVQAmTApoeXBCDtGYH9okUfv+8u
MCwlJ8AL+aKtTUk4uxqjNtGfhKnU6rfixLhJERZnyeJ/RNsa5BI9LU5mcvaJWxeF
r5V2J4ibaAv9aCjZ5zO/MZD3g0fsXkdj4UwDK9eZ6Z28PYVGIcy+hMqIcxlOI8/C
SDPyVOz2HZKyUabz8AlpPx2mkZEF+BaxyyWLa+QeH3t2sbuJiQKuCljIW7Ohm9Gc
LwX1Gf4daWhaOV7JAgMBAAGjggEHMIIBAzAOBgNVHQ8BAf8EBAMCBaAwCQYDVR0T
BAIwADAdBgNVHSUEFjAUBggrBgEFBQcDAQYIKwYBBQUHAwIwHQYDVR0OBBYEFITJ
1UcNWn8/3wmZod7TVmunHO5hMB8GA1UdIwQYMBaAFP5tZ7AR5LvPcOB1phwhM4MV
Mlt7MD0GCCsGAQUFBwEBBDEwLzAtBggrBgEFBQcwAoYhaHR0cDovL2V4YW1wbGUu
Y29tL2NhL2NsdXN0ZXIuY2VyMDIGA1UdHwQrMCkwJ6AloCOGIWh0dHA6Ly9leGFt
cGxlLmNvbS9jYS9jbHVzdGVyLmNybDAUBgNVHREEDTALgglsb2NhbGhvc3QwDQYJ
KoZIhvcNAQEFBQADggEBABLb79pRpcU6wcJGs5n6fQ2ThSI4a6xB+qtUtucJOxvi
I3BoF+hFEvjLtm9H9QITvMTn3QqO0N79DzBJRaO51PiOKbSItkngCGa3jzAzQezj
dycTM7+68vjaUXjY176kiJSAl2c5YfiNrNlou+JRSobYBkiYmfCpQTurWGquQYLC
NAqOmBtct77RnpRXYQzO6f2hGnv0S/4NS7MTi6B3fmuK3kW9rnTimhfXg7FWCSNm
DFd7IZHEJueFcF2GdkPZLBJbwjka+6wIp/NO2pIHc7p4hOPw8KllnWqe272TAdIc
FzciNPjmFo4E28PQiRsZZf4C1ktiRLvy+H9+BRsSoeE=
-----END CERTIFICATE-----
