Certificate:
    Data:
        Version: 3 (0x2)
        Serial Number: 12 (0xc)
        Signature Algorithm: sha256WithRSAEncryption
        Issuer: C=SE, O=Example, OU=Example Certificate Authority, CN=Example Cluster Authority
        Validity
            Not Before: Nov 26 11:09:47 2021 GMT
            Not After : May 19 11:09:47 2027 GMT
        Subject: C=SE, O=Example, OU=Example Cluster, CN=Server 11
        Subject Public Key Info:
            Public Key Algorithm: rsaEncryption
                RSA Public-Key: (2048 bit)
                Modulus:
                    00:ad:a2:60:81:6e:65:54:27:36:8d:3a:e3:39:25:
                    95:06:bb:38:c5:37:20:ee:24:c3:89:3b:8e:53:0b:
                    af:28:46:42:57:e9:e1:fe:08:b8:39:41:8c:a1:3a:
                    a3:ac:6d:34:3d:a1:69:a6:d5:b4:e9:8d:52:e6:08:
                    a2:54:5a:63:07:57:56:ff:b9:ed:67:ff:f1:8b:61:
                    00:b8:e3:17:06:fb:fd:bc:f9:08:7a:74:55:74:f2:
                    58:0c:e2:7b:e7:23:bf:3b:6e:9c:d3:16:7d:f1:f1:
                    1b:ea:d4:ae:c5:c3:f4:94:84:73:e3:e3:9a:67:02:
                    0e:43:29:e7:98:d2:00:90:51:53:31:25:3d:4d:fa:
                    67:2f:50:ec:46:0b:90:54:35:6a:04:dd:6e:73:e6:
                    88:2f:b7:b7:30:e7:39:9e:59:b7:e6:38:01:cf:1b:
                    3f:3b:f7:f2:74:86:aa:66:c1:01:23:5c:99:2c:b5:
                    38:0b:21:c7:6a:17:1f:88:c4:89:ca:06:0f:12:d1:
                    99:48:7d:a8:e5:8d:78:76:70:27:60:b8:8b:26:9d:
                    53:83:9c:19:7f:f5:f0:b1:3c:c0:82:4d:34:cf:69:
                    9f:74:cd:28:24:fe:54:ee:7b:f6:af:fe:ba:8f:c3:
                    e6:29:72:ba:40:b6:0a:58:b5:e8:d3:6b:a7:e2:5a:
                    45:97
                Exponent: 65537 (0x10001)
        X509v3 extensions:
            X509v3 Key Usage: critical
                Digital Signature, Key Encipherment
            X509v3 Basic Constraints: 
                CA:FALSE
            X509v3 Extended Key Usage: 
                TLS Web Server Authentication, TLS Web Client Authentication
            X509v3 Subject Key Identifier: 
                AC:E0:5E:E9:74:62:F2:8C:02:42:6B:2C:41:BA:DA:8A:BD:D1:2D:67
            X509v3 Authority Key Identifier: 
                keyid:83:BA:16:EC:04:23:A7:40:34:8B:A0:3A:35:ED:CE:B6:E8:95:8E:2D

            Authority Information Access: 
                CA Issuers - URI:http://example.com/ca/cluster.cer

            X509v3 CRL Distribution Points: 

                Full Name:
                  URI:http://example.com/ca/cluster.crl

            X509v3 Subject Alternative Name: 
                DNS:localhost
    Signature Algorithm: sha256WithRSAEncryption
         07:b1:1b:8f:60:96:ca:4e:4a:b6:7b:0b:2a:69:f1:ac:c6:60:
         c1:b3:e6:69:b2:3f:5f:4a:eb:b5:59:64:c3:ad:ab:c8:1d:91:
         e1:33:3e:43:13:44:29:3a:24:dc:65:9f:99:d3:66:be:62:cf:
         82:37:fe:55:42:1b:4b:dd:ee:00:68:f3:a1:fb:ea:b8:08:da:
         eb:0f:e1:5b:a4:42:76:c8:08:0e:99:13:46:ec:a9:03:39:44:
         5e:0e:76:3c:51:6d:d9:0c:9d:f8:ff:3a:ae:e6:31:80:a2:d0:
         08:ff:26:b3:a4:6d:fa:23:fe:b9:ab:e1:f2:99:14:0b:2e:2d:
         a9:6c:44:c6:8f:1e:8d:a1:43:b9:26:36:ca:96:a5:47:59:25:
         4e:af:4d:1c:fc:bc:59:ef:c9:c5:8e:4e:1c:d1:c1:93:48:f1:
         81:81:d7:fe:1d:b3:bd:68:19:99:d3:af:45:9b:a1:c7:dd:dc:
         35:45:4f:5e:f5:57:89:47:1a:3b:3f:53:79:f9:bc:40:ad:1c:
         0a:ac:c2:ef:50:a5:97:82:c3:7d:a2:1a:5b:a7:ca:05:5f:9c:
         1f:db:28:38:01:08:e5:31:3c:86:a4:5d:22:2f:21:e1:8c:6c:
         f5:d1:a4:e0:21:01:9e:1e:b2:4a:ff:11:e9:3e:5d:0f:0a:24:
         f2:64:39:92
-----BEGIN CERTIFICATE-----
MIIEPDCCAySgAwIBAgIBDDANBgkqhkiG9w0BAQsFADBrMQswCQYDVQQGEwJTRTEQ
MA4GA1UECgwHRXhhbXBsZTEmMCQGA1UECwwdRXhhbXBsZSBDZXJ0aWZpY2F0ZSBB
dXRob3JpdHkxIjAgBgNVBAMMGUV4YW1wbGUgQ2x1c3RlciBBdXRob3JpdHkwHhcN
MjExMTI2MTEwOTQ3WhcNMjcwNTE5MTEwOTQ3WjBNMQswCQYDVQQGEwJTRTEQMA4G
A1UECgwHRXhhbXBsZTEYMBYGA1UECwwPRXhhbXBsZSBDbHVzdGVyMRIwEAYDVQQD
DAlTZXJ2ZXIgMTEwggEiMA0GCSqGSIb3DQEBAQUAA4IBDwAwggEKAoIBAQCtomCB
bmVUJzaNOuM5JZUGuzjFNyDuJMOJO45TC68oRkJX6eH+CLg5QYyhOqOsbTQ9oWmm
1bTpjVLmCKJUWmMHV1b/ue1n//GLYQC44xcG+/28+Qh6dFV08lgM4nvnI787bpzT
Fn3x8Rvq1K7Fw/SUhHPj45pnAg5DKeeY0gCQUVMxJT1N+mcvUOxGC5BUNWoE3W5z
5ogvt7cw5zmeWbfmOAHPGz879/J0hqpmwQEjXJkstTgLIcdqFx+IxInKBg8S0ZlI
fajljXh2cCdguIsmnVODnBl/9fCxPMCCTTTPaZ90zSgk/lTue/av/rqPw+YpcrpA
tgpYtejTa6fiWkWXAgMBAAGjggEHMIIBAzAOBgNVHQ8BAf8EBAMCBaAwCQYDVR0T
BAIwADAdBgNVHSUEFjAUBggrBgEFBQcDAQYIKwYBBQUHAwIwHQYDVR0OBBYEFKzg
Xul0YvKMAkJrLEG62oq90S1nMB8GA1UdIwQYMBaAFIO6FuwEI6dANIugOjXtzrbo
lY4tMD0GCCsGAQUFBwEBBDEwLzAtBggrBgEFBQcwAoYhaHR0cDovL2V4YW1wbGUu
Y29tL2NhL2NsdXN0ZXIuY2VyMDIGA1UdHwQrMCkwJ6AloCOGIWh0dHA6Ly9leGFt
cGxlLmNvbS9jYS9jbHVzdGVyLmNybDAUBgNVHREEDTALgglsb2NhbGhvc3QwDQYJ
KoZIhvcNAQELBQADggEBAAexG49glspOSrZ7Cypp8azGYMGz5mmyP19K67VZZMOt
q8gdkeEzPkMTRCk6JNxln5nTZr5iz4I3/lVCG0vd7gBo86H76rgI2usP4VukQnbI
CA6ZE0bsqQM5RF4OdjxRbdkMnfj/Oq7mMYCi0Aj/JrOkbfoj/rmr4fKZFAsuLals
RMaPHo2hQ7kmNsqWpUdZJU6vTRz8vFnvycWOThzRwZNI8YGB1/4ds71oGZnTr0Wb
ocfd3DVFT171V4lHGjs/U3n5vECtHAqswu9QpZeCw32iGlunygVfnB/bKDgBCOUx
PIakXSIvIeGMbPXRpOAhAZ4eskr/Eek+XQ8KJPJkOZI=
-----END CERTIFICATE-----
