Certificate:
    Data:
        Version: 3 (0x2)
        Serial Number: 14895342359247964530 (0xceb6e2f4f2cdc972)
    Signature Algorithm: sha1WithRSAEncryption
        Issuer: C=SE, ST=Malm\xC3\x83\xC2\xB6, O=Neo Technology, CN=ca.neo4j.org/emailAddress=ca@neo4j.org
        Validity
            Not Before: May 12 11:14:52 2013 GMT
            Not After : Apr 18 11:14:52 2113 GMT
        Subject: C=SE, ST=Malm\xC3\x83\xC2\xB6, L=Malm\xC3\x83\xC2\xB6, O=Neo Technology, CN=intermediate.neo4j.org/emailAddress=intermediate@neo4j.org
        Subject Public Key Info:
            Public Key Algorithm: rsaEncryption
                Public-Key: (2048 bit)
                Modulus:
                    00:dd:c5:ff:86:48:0b:25:df:f5:72:a9:ba:d3:52:
                    7e:c8:f3:e8:1d:05:4b:e8:f8:04:ba:e0:0a:af:05:
                    88:84:06:25:06:40:76:fc:54:25:2a:bf:4b:67:8f:
                    ca:42:2d:03:df:be:95:3d:10:21:fb:96:e6:53:08:
                    57:71:70:3e:f8:7a:e1:73:44:a8:86:2f:b4:cd:32:
                    92:b8:49:70:c4:86:85:73:4d:f6:53:5e:84:00:d5:
                    db:b0:6b:45:d2:1f:39:5b:42:2c:7b:41:76:b8:3e:
                    0e:e0:49:a0:a9:94:43:1d:38:11:9b:58:11:de:a6:
                    44:51:3b:e0:36:71:4c:a4:cc:2e:73:38:0e:d5:86:
                    45:77:5f:87:f4:a3:14:aa:0f:fc:9c:1a:97:5f:f4:
                    ea:47:56:58:e0:31:1e:74:fe:e1:72:93:90:58:43:
                    53:05:18:22:2f:8c:93:ef:96:77:9f:07:3d:10:da:
                    9d:d9:39:a3:44:10:ba:ee:12:37:44:95:f4:ba:a5:
                    44:71:69:0f:8d:b6:8a:e0:d2:10:e0:22:df:a6:73:
                    e3:a1:ee:6d:a5:0e:c5:59:1d:65:76:fc:5a:19:ab:
                    a8:77:fc:ac:ab:1a:71:3d:8f:12:07:07:e1:ce:11:
                    fc:85:db:4c:b1:a0:c3:9d:48:8a:29:af:1d:05:dd:
                    86:85
                Exponent: 65537 (0x10001)
        X509v3 extensions:
            X509v3 Basic Constraints: 
                CA:TRUE
    Signature Algorithm: sha1WithRSAEncryption
         61:b8:6a:5b:29:17:75:44:61:81:49:2f:34:42:1e:aa:02:da:
         d5:40:1e:d4:c7:24:27:0b:e3:1c:a5:c7:e7:1e:a2:f1:d5:f4:
         51:d7:7b:2c:c5:75:61:5e:9e:4f:bb:a2:9d:f9:1d:1e:fa:1f:
         5b:28:25:ab:9d:56:31:41:07:50:50:b3:ba:23:b2:d7:1a:ff:
         84:4b:b0:60:0c:77:85:75:3e:00:e2:c3:7a:34:67:a5:d2:53:
         13:71:ec:07:02:24:9a:5b:1e:eb:b5:c0:d5:77:9f:1e:99:8e:
         0d:3f:37:1c:3a:e3:a8:28:56:3f:e3:b2:b2:5d:27:45:e6:72:
         65:67:81:6a:fe:6e:d3:a6:89:03:41:e7:ed:23:9f:b4:97:df:
         68:79:cd:92:a2:74:d1:70:3b:d0:7e:b4:00:dc:f9:c4:0f:fe:
         76:d0:f8:cb:74:7a:68:2b:d7:6b:1a:56:02:c9:88:c2:e0:85:
         ee:a1:02:e5:2b:24:24:ce:e4:2e:84:12:c2:3e:ca:d4:4c:04:
         1d:27:2d:5b:2d:e5:4c:ae:98:3e:89:2e:04:c9:2e:e4:da:3f:
         f4:e2:23:08:51:1d:00:00:c9:3b:82:bc:25:88:ce:59:40:9f:
         58:62:19:24:70:d4:22:2a:8c:60:53:4c:69:55:3f:a9:82:91:
         c7:b8:f9:3c
-----BEGIN CERTIFICATE-----
MIIDlzCCAn+gAwIBAgIJAM624vTyzclyMA0GCSqGSIb3DQEBBQUAMG0xCzAJBgNV
BAYTAlNFMREwDwYDVQQIDAhNYWxtw4PCtjEXMBUGA1UECgwOTmVvIFRlY2hub2xv
Z3kxFTATBgNVBAMMDGNhLm5lbzRqLm9yZzEbMBkGCSqGSIb3DQEJARYMY2FAbmVv
NGoub3JnMCAXDTEzMDUxMjExMTQ1MloYDzIxMTMwNDE4MTExNDUyWjCBlDELMAkG
A1UEBhMCU0UxETAPBgNVBAgMCE1hbG3Dg8K2MREwDwYDVQQHDAhNYWxtw4PCtjEX
MBUGA1UECgwOTmVvIFRlY2hub2xvZ3kxHzAdBgNVBAMMFmludGVybWVkaWF0ZS5u
ZW80ai5vcmcxJTAjBgkqhkiG9w0BCQEWFmludGVybWVkaWF0ZUBuZW80ai5vcmcw
ggEiMA0GCSqGSIb3DQEBAQUAA4IBDwAwggEKAoIBAQDdxf+GSAsl3/VyqbrTUn7I
8+gdBUvo+AS64AqvBYiEBiUGQHb8VCUqv0tnj8pCLQPfvpU9ECH7luZTCFdxcD74
euFzRKiGL7TNMpK4SXDEhoVzTfZTXoQA1duwa0XSHzlbQix7QXa4Pg7gSaCplEMd
OBGbWBHepkRRO+A2cUykzC5zOA7VhkV3X4f0oxSqD/ycGpdf9OpHVljgMR50/uFy
k5BYQ1MFGCIvjJPvlnefBz0Q2p3ZOaNEELruEjdElfS6pURxaQ+Ntorg0hDgIt+m
c+Oh7m2lDsVZHWV2/FoZq6h3/KyrGnE9jxIHB+HOEfyF20yxoMOdSIoprx0F3YaF
AgMBAAGjEDAOMAwGA1UdEwQFMAMBAf8wDQYJKoZIhvcNAQEFBQADggEBAGG4alsp
F3VEYYFJLzRCHqoC2tVAHtTHJCcL4xylx+ceovHV9FHXeyzFdWFenk+7op35HR76
H1soJaudVjFBB1BQs7ojstca/4RLsGAMd4V1PgDiw3o0Z6XSUxNx7AcCJJpbHuu1
wNV3nx6Zjg0/Nxw646goVj/jsrJdJ0XmcmVngWr+btOmiQNB5+0jn7SX32h5zZKi
dNFwO9B+tADc+cQP/nbQ+Mt0emgr12saVgLJiMLghe6hAuUrJCTO5C6EEsI+ytRM
BB0nLVst5UyumD6JLgTJLuTaP/TiIwhRHQAAyTuCvCWIzllAn1hiGSRw1CIqjGBT
TGlVP6mCkce4+Tw=
-----END CERTIFICATE-----
