Certificate:
    Data:
        Version: 3 (0x2)
        Serial Number: 14895342359247964528 (0xceb6e2f4f2cdc970)
    Signature Algorithm: sha1WithRSAEncryption
        Issuer: C=SE, ST=Malm\xC3\x83\xC2\xB6, O=Neo Technology, CN=ca.neo4j.org/emailAddress=ca@neo4j.org
        Validity
            Not Before: May 12 11:12:02 2013 GMT
            Not After : Feb 13 11:12:02 2068 GMT
        Subject: C=SE, ST=Malm\xC3\x83\xC2\xB6, O=Neo Technology, CN=ca.neo4j.org/emailAddress=ca@neo4j.org
        Subject Public Key Info:
            Public Key Algorithm: rsaEncryption
                Public-Key: (2048 bit)
                Modulus:
                    00:b4:4d:eb:92:31:65:d9:b2:8b:08:db:ab:e5:b6:
                    65:48:a8:5c:72:89:e0:bf:ff:36:ea:9c:dc:b7:d7:
                    84:2f:08:28:5b:f4:76:88:db:34:51:da:95:c7:d9:
                    12:df:c4:8d:54:5d:00:6f:1b:9f:73:7d:15:46:39:
                    86:16:87:d5:5e:37:2b:43:dc:2f:57:a5:ca:6d:3f:
                    4f:16:05:93:d5:37:46:11:0e:c1:83:bc:33:18:c8:
                    e3:d9:ce:0b:23:08:1f:bd:ac:50:27:7e:25:06:a4:
                    54:5d:42:56:42:fc:52:8b:93:4c:60:b0:c4:58:2c:
                    31:45:14:e3:e8:f0:36:42:98:f2:0d:99:76:e5:53:
                    b3:36:26:a8:3d:27:09:d5:b7:a4:ca:ec:d4:5d:33:
                    cd:d7:46:af:80:3f:77:53:e3:af:71:8e:54:40:f8:
                    dc:ff:49:c5:84:26:85:02:d5:5c:e0:d6:e6:b6:8d:
                    d1:52:b3:43:e0:10:75:45:9d:0d:4b:ce:a7:e7:ea:
                    0a:ac:2b:a8:18:96:a6:b5:02:b2:97:62:40:c0:c1:
                    ad:7f:29:cd:90:68:c9:cb:61:ec:03:07:a1:7a:f4:
                    e6:9c:d5:ea:ee:99:a7:6d:a7:c3:1f:1f:34:65:89:
                    23:86:30:60:98:ff:f7:32:f4:90:8d:25:af:ad:9a:
                    a8:23
                Exponent: 65537 (0x10001)
        X509v3 extensions:
            X509v3 Subject Key Identifier: 
                D3:4A:C7:C3:47:ED:99:CD:96:DB:5E:C2:D2:21:A5:61:60:8C:7F:06
            X509v3 Authority Key Identifier: 
                keyid:D3:4A:C7:C3:47:ED:99:CD:96:DB:5E:C2:D2:21:A5:61:60:8C:7F:06

            X509v3 Basic Constraints: 
                CA:TRUE
    Signature Algorithm: sha1WithRSAEncryption
         57:08:14:4a:8f:86:b1:21:55:e0:50:9c:65:17:b9:b6:d0:81:
         77:b6:8f:8e:56:96:e7:ff:9f:7c:f1:8e:3b:4a:c1:f2:40:0c:
         03:4c:bf:a8:69:8f:14:b7:38:c6:a7:a7:b6:03:6d:86:f8:ba:
         8e:7b:af:78:4e:41:db:96:28:f2:47:dc:43:85:84:7c:56:f5:
         d9:09:61:b7:b6:5c:63:dc:2b:1a:c7:ac:6a:a9:0f:68:55:1f:
         a6:db:22:d0:2c:db:6b:35:c8:fd:19:90:d8:13:04:b6:59:f9:
         ea:04:b0:22:df:e0:a6:f8:34:d1:5c:16:63:b2:6d:6f:7b:cf:
         a6:0e:9d:24:51:2e:65:fb:73:25:3d:cd:df:ca:8b:f2:9a:18:
         e3:75:8a:32:02:06:a8:4d:a7:dc:35:2e:c0:7f:a7:4b:37:62:
         08:e1:ee:fd:17:61:68:19:00:04:8c:f1:19:a7:b1:26:ae:9c:
         c0:e3:65:9a:f9:77:23:8e:1e:21:7d:ec:b9:7d:09:3e:cb:3d:
         44:63:72:84:6b:ff:3c:4f:56:06:cd:8d:f8:d8:2d:25:d0:f1:
         9d:9f:d5:d3:7c:fc:1a:cb:a8:6d:d5:1a:0e:c2:ec:83:cb:ba:
         a7:85:4f:32:3b:ea:52:4c:17:0e:a9:40:09:67:29:e0:b5:68:
         96:72:92:af
-----BEGIN CERTIFICATE-----
MIIDrzCCApegAwIBAgIJAM624vTyzclwMA0GCSqGSIb3DQEBBQUAMG0xCzAJBgNV
BAYTAlNFMREwDwYDVQQIDAhNYWxtw4PCtjEXMBUGA1UECgwOTmVvIFRlY2hub2xv
Z3kxFTATBgNVBAMMDGNhLm5lbzRqLm9yZzEbMBkGCSqGSIb3DQEJARYMY2FAbmVv
NGoub3JnMCAXDTEzMDUxMjExMTIwMloYDzIwNjgwMjEzMTExMjAyWjBtMQswCQYD
VQQGEwJTRTERMA8GA1UECAwITWFsbcODwrYxFzAVBgNVBAoMDk5lbyBUZWNobm9s
b2d5MRUwEwYDVQQDDAxjYS5uZW80ai5vcmcxGzAZBgkqhkiG9w0BCQEWDGNhQG5l
bzRqLm9yZzCCASIwDQYJKoZIhvcNAQEBBQADggEPADCCAQoCggEBALRN65IxZdmy
iwjbq+W2ZUioXHKJ4L//Nuqc3LfXhC8IKFv0dojbNFHalcfZEt/EjVRdAG8bn3N9
FUY5hhaH1V43K0PcL1elym0/TxYFk9U3RhEOwYO8MxjI49nOCyMIH72sUCd+JQak
VF1CVkL8UouTTGCwxFgsMUUU4+jwNkKY8g2ZduVTszYmqD0nCdW3pMrs1F0zzddG
r4A/d1Pjr3GOVED43P9JxYQmhQLVXODW5raN0VKzQ+AQdUWdDUvOp+fqCqwrqBiW
prUCspdiQMDBrX8pzZBoycth7AMHoXr05pzV6u6Zp22nwx8fNGWJI4YwYJj/9zL0
kI0lr62aqCMCAwEAAaNQME4wHQYDVR0OBBYEFNNKx8NH7ZnNlttewtIhpWFgjH8G
MB8GA1UdIwQYMBaAFNNKx8NH7ZnNlttewtIhpWFgjH8GMAwGA1UdEwQFMAMBAf8w
DQYJKoZIhvcNAQEFBQADggEBAFcIFEqPhrEhVeBQnGUXubbQgXe2j45Wluf/n3zx
jjtKwfJADANMv6hpjxS3OManp7YDbYb4uo57r3hOQduWKPJH3EOFhHxW9dkJYbe2
XGPcKxrHrGqpD2hVH6bbItAs22s1yP0ZkNgTBLZZ+eoEsCLf4Kb4NNFcFmOybW97
z6YOnSRRLmX7cyU9zd/Ki/KaGON1ijICBqhNp9w1LsB/p0s3Ygjh7v0XYWgZAASM
8RmnsSaunMDjZZr5dyOOHiF97Ll9CT7LPURjcoRr/zxPVgbNjfjYLSXQ8Z2f1dN8
/BrLqG3VGg7C7IPLuqeFTzI76lJMFw6pQAlnKeC1aJZykq8=
-----END CERTIFICATE-----
