Certificate:
    Data:
        Version: 3 (0x2)
        Serial Number: 4 (0x4)
        Signature Algorithm: sha1WithRSAEncryption
        Issuer: C=SE, O=Example, OU=Example Certificate Authority, CN=Example Cluster Authority
        Validity
            Not Before: Jun 20 09:16:09 2017 GMT
            Not After : Dec 11 09:16:09 2022 GMT
        Subject: C=SE, O=Example, OU=Example Cluster, CN=Server 3
        Subject Public Key Info:
            Public Key Algorithm: rsaEncryption
            RSA Public Key: (2048 bit)
                Modulus (2048 bit):
                    00:d3:f2:92:6e:9f:a2:78:ef:bf:07:fc:d5:1f:6a:
                    89:24:24:8a:1a:d3:b1:87:3b:b1:dc:da:3a:41:6a:
                    25:49:16:2c:73:d0:34:4f:ed:42:8e:37:f2:97:b4:
                    64:d3:81:cc:69:f4:c7:3f:4c:ed:82:70:d0:dd:b1:
                    e4:ab:7f:99:a8:9a:16:48:8b:14:28:16:42:14:5d:
                    b5:8d:2e:74:62:03:87:e5:e4:c8:08:f8:ba:3e:f5:
                    9a:6c:db:23:f7:28:ab:d7:29:bb:61:30:19:fc:ae:
                    06:c3:d7:b7:60:c8:54:bc:ab:2f:8e:bc:5f:70:f2:
                    09:0d:39:0c:1d:26:50:26:69:8b:10:a0:f3:bf:16:
                    44:25:40:09:ba:3f:5a:33:44:83:26:70:3b:37:02:
                    24:51:ef:ec:86:a7:ac:b2:d5:73:64:9e:2f:0d:3e:
                    34:e7:2e:2d:df:0c:3a:34:32:dc:3f:7f:83:b9:e8:
                    97:41:85:c3:d9:cc:b5:e1:b8:6a:ea:c4:d9:cf:b4:
                    57:43:ae:b4:78:8e:ec:d8:0b:4d:51:32:f8:22:e2:
                    a3:29:d3:ab:31:b4:27:fc:c0:5f:5e:34:e2:5f:d2:
                    d0:43:a7:b2:8e:49:8a:2c:e3:f9:8e:67:0d:c8:79:
                    5c:12:f8:81:06:20:4d:5a:56:cc:e7:4b:f6:20:bb:
                    b7:01
                Exponent: 65537 (0x10001)
        X509v3 extensions:
            X509v3 Key Usage: critical
                Digital Signature, Key Encipherment
            X509v3 Basic Constraints: 
                CA:FALSE
            X509v3 Extended Key Usage: 
                TLS Web Server Authentication, TLS Web Client Authentication
            X509v3 Subject Key Identifier: 
                63:6E:4A:0B:C1:9B:70:05:8D:DC:78:D6:E3:3B:93:7E:8F:0E:25:63
            X509v3 Authority Key Identifier: 
                keyid:DB:AE:9D:4D:E7:B8:84:A6:E8:E8:2D:1B:AD:73:AE:2C:21:11:E0:2C

            Authority Information Access: 
                CA Issuers - URI:http://example.com/ca/cluster.cer

            X509v3 CRL Distribution Points: 
                URI:http://example.com/ca/cluster.crl

    Signature Algorithm: sha1WithRSAEncryption
        17:47:97:58:a2:c7:f8:a7:44:39:23:21:2e:06:3d:5d:f0:49:
        c2:67:1d:0f:c4:b7:16:33:ca:47:70:28:d1:fd:9b:df:ba:b4:
        58:a0:85:06:e4:68:7f:6e:86:d7:a6:43:db:69:bf:a0:d5:46:
        90:11:d0:77:44:b8:b4:e9:d0:af:6f:d3:ef:29:f4:91:14:b6:
        3f:f9:59:64:f8:14:f2:f9:f0:f8:d5:60:9f:c1:b1:d7:b8:14:
        65:a3:ed:5e:ca:f3:57:da:5f:c9:60:0a:8e:1d:d2:c9:26:6c:
        c4:2e:72:8d:6b:a6:b7:b9:3e:a9:ee:a0:75:12:16:51:a9:23:
        05:8a:3b:fb:24:f9:89:d2:73:95:09:2d:cf:c9:2f:9c:3a:b3:
        6a:4e:ed:ff:8e:e9:d9:76:d2:70:51:a8:51:9c:d6:aa:cc:91:
        02:16:9c:dc:6e:25:cd:0c:d3:b5:e9:c7:3c:af:c6:d5:3b:4f:
        b7:4b:35:28:e3:a3:0d:8f:0e:b8:0c:b7:a0:6f:59:4b:ff:14:
        98:37:2b:fd:d4:24:1c:1b:db:ef:e9:85:9a:05:2f:87:01:52:
        a8:0f:d1:5c:b2:db:c8:d5:2e:17:7b:50:27:24:df:18:22:66:
        48:d6:c5:88:6d:d2:98:6c:a8:74:2f:7b:8d:a0:8e:98:41:7f:
        85:dd:99:fa
-----BEGIN CERTIFICATE-----
MIIEIzCCAwugAwIBAgIBBDANBgkqhkiG9w0BAQUFADBrMQswCQYDVQQGEwJTRTEQ
MA4GA1UECgwHRXhhbXBsZTEmMCQGA1UECwwdRXhhbXBsZSBDZXJ0aWZpY2F0ZSBB
dXRob3JpdHkxIjAgBgNVBAMMGUV4YW1wbGUgQ2x1c3RlciBBdXRob3JpdHkwHhcN
MTcwNjIwMDkxNjA5WhcNMjIxMjExMDkxNjA5WjBMMQswCQYDVQQGEwJTRTEQMA4G
A1UECgwHRXhhbXBsZTEYMBYGA1UECwwPRXhhbXBsZSBDbHVzdGVyMREwDwYDVQQD
DAhTZXJ2ZXIgMzCCASIwDQYJKoZIhvcNAQEBBQADggEPADCCAQoCggEBANPykm6f
onjvvwf81R9qiSQkihrTsYc7sdzaOkFqJUkWLHPQNE/tQo438pe0ZNOBzGn0xz9M
7YJw0N2x5Kt/maiaFkiLFCgWQhRdtY0udGIDh+XkyAj4uj71mmzbI/coq9cpu2Ew
GfyuBsPXt2DIVLyrL468X3DyCQ05DB0mUCZpixCg878WRCVACbo/WjNEgyZwOzcC
JFHv7IanrLLVc2SeLw0+NOcuLd8MOjQy3D9/g7nol0GFw9nMteG4aurE2c+0V0Ou
tHiO7NgLTVEy+CLioynTqzG0J/zAX1404l/S0EOnso5Jiizj+Y5nDch5XBL4gQYg
TVpWzOdL9iC7twECAwEAAaOB8DCB7TAOBgNVHQ8BAf8EBAMCBaAwCQYDVR0TBAIw
ADAdBgNVHSUEFjAUBggrBgEFBQcDAQYIKwYBBQUHAwIwHQYDVR0OBBYEFGNuSgvB
m3AFjdx41uM7k36PDiVjMB8GA1UdIwQYMBaAFNuunU3nuISm6OgtG61zriwhEeAs
MD0GCCsGAQUFBwEBBDEwLzAtBggrBgEFBQcwAoYhaHR0cDovL2V4YW1wbGUuY29t
L2NhL2NsdXN0ZXIuY2VyMDIGA1UdHwQrMCkwJ6AloCOGIWh0dHA6Ly9leGFtcGxl
LmNvbS9jYS9jbHVzdGVyLmNybDANBgkqhkiG9w0BAQUFAAOCAQEAF0eXWKLH+KdE
OSMhLgY9XfBJwmcdD8S3FjPKR3Ao0f2b37q0WKCFBuRof26G16ZD22m/oNVGkBHQ
d0S4tOnQr2/T7yn0kRS2P/lZZPgU8vnw+NVgn8Gx17gUZaPtXsrzV9pfyWAKjh3S
ySZsxC5yjWumt7k+qe6gdRIWUakjBYo7+yT5idJzlQktz8kvnDqzak7t/47p2XbS
cFGoUZzWqsyRAhac3G4lzQzTtenHPK/G1TtPt0s1KOOjDY8OuAy3oG9ZS/8UmDcr
/dQkHBvb7+mFmgUvhwFSqA/RXLLbyNUuF3tQJyTfGCJmSNbFiG3SmGyodC97jaCO
mEF/hd2Z+g==
-----END CERTIFICATE-----
