Certificate:
    Data:
        Version: 3 (0x2)
        Serial Number: 4 (0x4)
    Signature Algorithm: sha1WithRSAEncryption
        Issuer: C=SE, O=Example, OU=Example Certificate Authority, CN=Example Cluster Authority
        Validity
            Not Before: Mar 13 11:43:00 2018 GMT
            Not After : Sep  3 11:43:00 2023 GMT
        Subject: C=SE, O=Example, OU=Example Cluster, CN=Server 3
        Subject Public Key Info:
            Public Key Algorithm: rsaEncryption
                Public-Key: (2048 bit)
                Modulus:
                    00:e4:9e:e7:20:7f:5f:e7:d9:c0:6b:ed:b9:17:3e:
                    db:2d:e7:ad:91:7f:9f:77:0b:39:b7:98:07:db:7d:
                    64:a1:16:dc:ff:ad:2c:52:7a:62:f5:08:f8:af:a0:
                    2a:16:47:5c:6a:7b:11:47:b3:32:72:7f:ab:7c:df:
                    b3:b8:61:09:61:85:82:ce:18:63:b8:ab:73:4f:65:
                    0a:28:6a:92:f2:f5:aa:88:e3:24:44:84:17:05:a4:
                    87:f0:72:fd:d9:9c:4b:1e:7a:38:15:1b:55:50:65:
                    c0:85:f9:e9:e2:cc:e6:53:d6:36:ee:02:10:ec:9b:
                    d1:11:72:44:d6:b0:39:4b:c0:b4:1b:45:97:32:e6:
                    4e:04:1b:30:04:3e:7d:e3:a0:1a:50:6f:d7:d9:67:
                    d3:53:03:26:b5:f8:e5:c9:0a:98:65:1e:8e:db:b1:
                    72:de:ec:ab:95:e8:8e:c3:35:f0:e7:a5:47:7c:2d:
                    e9:53:5f:62:1f:6e:38:98:96:a7:8d:75:34:5f:10:
                    a0:2c:54:5f:42:06:7a:b3:3c:44:ef:9e:fe:44:22:
                    d3:ad:62:5b:2f:fe:b3:50:53:c0:64:7c:42:c9:cc:
                    f0:4b:2f:05:a1:1f:f1:ab:cc:0e:88:9e:2f:33:5f:
                    17:6f:b5:d4:0a:db:b2:69:91:41:2c:a9:0b:9e:46:
                    13:e3
                Exponent: 65537 (0x10001)
        X509v3 extensions:
            X509v3 Key Usage: critical
                Digital Signature, Key Encipherment
            X509v3 Basic Constraints: 
                CA:FALSE
            X509v3 Extended Key Usage: 
                TLS Web Server Authentication, TLS Web Client Authentication
            X509v3 Subject Key Identifier: 
                DD:CA:59:C1:10:C0:02:37:5D:5E:26:99:34:79:E7:FE:D2:9D:B1:51
            X509v3 Authority Key Identifier: 
                keyid:D0:17:85:14:AC:81:1D:29:A4:75:73:01:87:5C:40:D2:84:68:3D:4F

            Authority Information Access: 
                CA Issuers - URI:http://example.com/ca/cluster.cer

            X509v3 CRL Distribution Points: 

                Full Name:
                  URI:http://example.com/ca/cluster.crl

    Signature Algorithm: sha1WithRSAEncryption
         9a:73:1e:4f:c1:e4:49:3c:82:07:f9:a4:d8:23:22:1d:33:23:
         86:a5:aa:6f:0e:48:86:c1:9a:2a:29:66:88:e4:06:47:ef:11:
         29:2b:e4:8a:dc:04:3e:31:31:31:13:06:d5:ff:c7:54:63:3b:
         eb:b7:27:26:06:42:4a:17:66:2c:c2:47:4c:68:e6:f2:81:6d:
         3f:2f:f1:02:68:44:a0:97:5c:83:58:53:a7:c9:bb:7b:2f:ae:
         ff:1a:38:49:15:d6:2b:b4:c2:b0:ad:53:cf:a4:f4:a5:1d:b8:
         08:90:62:97:b9:ad:1a:d5:63:d7:af:14:3e:ce:f4:f3:79:cb:
         f0:54:10:f9:6d:e7:89:0c:d5:54:21:ca:7c:9f:0b:7e:dc:48:
         d2:48:f1:af:d9:13:be:3c:bd:af:f4:d3:bf:96:95:18:56:4a:
         a0:68:08:22:5f:1c:57:1f:9d:13:f4:b0:a4:38:2b:d1:da:de:
         e9:7d:84:90:c3:4a:b9:b1:84:93:45:67:ec:1d:25:bf:1e:99:
         0e:12:0f:89:96:87:df:f8:a5:79:2c:cf:4f:e1:29:6b:43:4f:
         1e:77:73:bf:9b:ce:c3:07:ff:01:86:af:5c:43:77:55:7a:04:
         54:a3:da:f1:17:9d:35:73:77:50:54:73:b6:ed:1a:07:8e:16:
         80:8f:b4:75
-----BEGIN CERTIFICATE-----
MIIEIzCCAwugAwIBAgIBBDANBgkqhkiG9w0BAQUFADBrMQswCQYDVQQGEwJTRTEQ
MA4GA1UECgwHRXhhbXBsZTEmMCQGA1UECwwdRXhhbXBsZSBDZXJ0aWZpY2F0ZSBB
dXRob3JpdHkxIjAgBgNVBAMMGUV4YW1wbGUgQ2x1c3RlciBBdXRob3JpdHkwHhcN
MTgwMzEzMTE0MzAwWhcNMjMwOTAzMTE0MzAwWjBMMQswCQYDVQQGEwJTRTEQMA4G
A1UECgwHRXhhbXBsZTEYMBYGA1UECwwPRXhhbXBsZSBDbHVzdGVyMREwDwYDVQQD
DAhTZXJ2ZXIgMzCCASIwDQYJKoZIhvcNAQEBBQADggEPADCCAQoCggEBAOSe5yB/
X+fZwGvtuRc+2y3nrZF/n3cLObeYB9t9ZKEW3P+tLFJ6YvUI+K+gKhZHXGp7EUez
MnJ/q3zfs7hhCWGFgs4YY7irc09lCihqkvL1qojjJESEFwWkh/By/dmcSx56OBUb
VVBlwIX56eLM5lPWNu4CEOyb0RFyRNawOUvAtBtFlzLmTgQbMAQ+feOgGlBv19ln
01MDJrX45ckKmGUejtuxct7sq5XojsM18OelR3wt6VNfYh9uOJiWp411NF8QoCxU
X0IGerM8RO+e/kQi061iWy/+s1BTwGR8QsnM8EsvBaEf8avMDoieLzNfF2+11Arb
smmRQSypC55GE+MCAwEAAaOB8DCB7TAOBgNVHQ8BAf8EBAMCBaAwCQYDVR0TBAIw
ADAdBgNVHSUEFjAUBggrBgEFBQcDAQYIKwYBBQUHAwIwHQYDVR0OBBYEFN3KWcEQ
wAI3XV4mmTR55/7SnbFRMB8GA1UdIwQYMBaAFNAXhRSsgR0ppHVzAYdcQNKEaD1P
MD0GCCsGAQUFBwEBBDEwLzAtBggrBgEFBQcwAoYhaHR0cDovL2V4YW1wbGUuY29t
L2NhL2NsdXN0ZXIuY2VyMDIGA1UdHwQrMCkwJ6AloCOGIWh0dHA6Ly9leGFtcGxl
LmNvbS9jYS9jbHVzdGVyLmNybDANBgkqhkiG9w0BAQUFAAOCAQEAmnMeT8HkSTyC
B/mk2CMiHTMjhqWqbw5IhsGaKilmiOQGR+8RKSvkitwEPjExMRMG1f/HVGM767cn
JgZCShdmLMJHTGjm8oFtPy/xAmhEoJdcg1hTp8m7ey+u/xo4SRXWK7TCsK1Tz6T0
pR24CJBil7mtGtVj168UPs7083nL8FQQ+W3niQzVVCHKfJ8LftxI0kjxr9kTvjy9
r/TTv5aVGFZKoGgIIl8cVx+dE/SwpDgr0dre6X2EkMNKubGEk0Vn7B0lvx6ZDhIP
iZaH3/ileSzPT+Epa0NPHndzv5vOwwf/AYavXEN3VXoEVKPa8RedNXN3UFRztu0a
B44WgI+0dQ==
-----END CERTIFICATE-----
