Certificate:
    Data:
        Version: 3 (0x2)
        Serial Number: 4 (0x4)
        Signature Algorithm: sha1WithRSAEncryption
        Issuer: C=SE, O=Example, OU=Example Certificate Authority, CN=Example Cluster Authority
        Validity
            Not Before: Jan  9 14:58:45 2024 GMT
            Not After : Jul  1 14:58:45 2029 GMT
        Subject: C=SE, O=Example, OU=Example Cluster, CN=Server 3
        Subject Public Key Info:
            Public Key Algorithm: rsaEncryption
                Public-Key: (2048 bit)
                Modulus:
                    00:f1:f6:39:24:35:78:bb:a4:fe:ef:5f:97:ba:7c:
                    86:a2:21:23:23:c1:1c:d9:ae:5e:2e:67:e2:6b:b1:
                    5b:72:36:84:b3:ef:6e:11:40:6a:0b:e6:b2:63:39:
                    cd:60:b5:f8:c5:e0:58:5b:b4:03:55:c5:56:c4:21:
                    25:77:8e:d0:18:ad:97:80:24:b3:57:a7:f0:64:87:
                    b7:fe:1e:d8:cf:9c:d9:e9:0b:d0:b2:f0:33:56:94:
                    8a:dc:48:de:0d:f5:1b:4f:46:e0:b6:44:33:65:15:
                    7b:61:02:2c:7c:ae:d3:9a:2c:bd:46:4a:99:f2:2c:
                    3a:02:4e:71:03:40:4d:ca:1f:21:90:74:20:71:25:
                    2e:b1:00:43:02:4a:55:85:07:09:1c:ae:ee:87:f3:
                    3e:54:10:95:2e:b3:c5:a4:ce:c8:d8:ea:6b:4a:61:
                    67:7a:2a:61:e9:21:3b:0f:f7:31:50:b9:96:bd:7e:
                    c3:c8:4f:f0:c2:05:24:3a:fa:c2:06:ee:20:06:53:
                    9f:2a:df:d5:68:76:0d:1a:3e:e9:20:36:cb:b9:7d:
                    e0:f2:86:f1:3c:6d:3b:e0:09:d6:a2:69:fc:c1:41:
                    6a:6a:21:36:30:ee:17:76:b2:43:e5:5b:98:9f:2f:
                    b9:0b:d2:ee:d0:e4:43:9c:75:91:a1:49:1e:9e:d7:
                    26:e3
                Exponent: 65537 (0x10001)
        X509v3 extensions:
            X509v3 Key Usage: critical
                Digital Signature, Key Encipherment
            X509v3 Basic Constraints: 
                CA:FALSE
            X509v3 Extended Key Usage: 
                TLS Web Server Authentication, TLS Web Client Authentication
            X509v3 Subject Key Identifier: 
                63:0F:9B:14:6C:37:2F:77:F2:48:FE:42:34:C8:38:0B:6A:B4:72:32
            X509v3 Authority Key Identifier: 
                FE:6D:67:B0:11:E4:BB:CF:70:E0:75:A6:1C:21:33:83:15:32:5B:7B
            Authority Information Access: 
                CA Issuers - URI:http://example.com/ca/cluster.cer
            X509v3 CRL Distribution Points: 
                Full Name:
                  URI:http://example.com/ca/cluster.crl
            X509v3 Subject Alternative Name: 
                DNS:localhost
    Signature Algorithm: sha1WithRSAEncryption
    Signature Value:
        48:56:3a:9a:7f:17:e5:77:4f:71:f5:06:c2:8a:b3:79:b7:8e:
        23:23:9c:71:f9:58:ff:6f:1d:49:3e:dc:fd:27:1a:8b:1e:69:
        b0:ca:f1:d9:f4:21:4c:cf:98:b3:79:de:62:fd:2c:c7:51:44:
        d7:5e:03:fe:e6:f7:8e:21:4a:9a:95:18:a2:60:8e:37:51:2e:
        10:f2:71:dd:55:f4:43:e0:ef:1a:85:e5:42:86:0f:2d:cf:0a:
        ca:8e:6c:00:3e:b4:50:dd:a7:1b:67:9f:50:34:5f:66:d2:b7:
        76:5a:d8:2a:74:d7:ab:cd:80:61:f8:e0:75:72:5d:98:e9:df:
        64:49:24:bf:bc:1f:04:9a:24:13:98:fa:e1:fe:c2:e5:90:c8:
        d0:ff:1e:15:1b:53:b7:e3:76:cf:f7:0f:34:ef:86:64:44:6b:
        95:bd:15:0c:4c:5c:83:75:89:be:1b:b3:1f:17:6c:cf:fb:06:
        6c:72:e3:1e:22:3b:de:85:a7:b6:66:38:64:f5:63:66:cc:49:
        a8:ee:8a:cf:37:e5:df:1b:7d:92:c8:29:45:10:73:a1:0e:d2:
        ab:bb:ea:3f:5a:5e:33:27:77:36:52:83:58:68:2d:3b:a0:5f:
        f5:6e:c1:39:9e:11:27:19:e2:f0:a6:0c:14:fa:80:5c:ce:14:
        f3:cb:3b:bc
-----BEGIN CERTIFICATE-----
MIIEOzCCAyOgAwIBAgIBBDANBgkqhkiG9w0BAQUFADBrMQswCQYDVQQGEwJTRTEQ
MA4GA1UECgwHRXhhbXBsZTEmMCQGA1UECwwdRXhhbXBsZSBDZXJ0aWZpY2F0ZSBB
dXRob3JpdHkxIjAgBgNVBAMMGUV4YW1wbGUgQ2x1c3RlciBBdXRob3JpdHkwHhcN
MjQwMTA5MTQ1ODQ1WhcNMjkwNzAxMTQ1ODQ1WjBMMQswCQYDVQQGEwJTRTEQMA4G
A1UECgwHRXhhbXBsZTEYMBYGA1UECwwPRXhhbXBsZSBDbHVzdGVyMREwDwYDVQQD
DAhTZXJ2ZXIgMzCCASIwDQYJKoZIhvcNAQEBBQADggEPADCCAQoCggEBAPH2OSQ1
eLuk/u9fl7p8hqIhIyPBHNmuXi5n4muxW3I2hLPvbhFAagvmsmM5zWC1+MXgWFu0
A1XFVsQhJXeO0Bitl4Aks1en8GSHt/4e2M+c2ekL0LLwM1aUitxI3g31G09G4LZE
M2UVe2ECLHyu05osvUZKmfIsOgJOcQNATcofIZB0IHElLrEAQwJKVYUHCRyu7ofz
PlQQlS6zxaTOyNjqa0phZ3oqYekhOw/3MVC5lr1+w8hP8MIFJDr6wgbuIAZTnyrf
1Wh2DRo+6SA2y7l94PKG8TxtO+AJ1qJp/MFBamohNjDuF3ayQ+VbmJ8vuQvS7tDk
Q5x1kaFJHp7XJuMCAwEAAaOCAQcwggEDMA4GA1UdDwEB/wQEAwIFoDAJBgNVHRME
AjAAMB0GA1UdJQQWMBQGCCsGAQUFBwMBBggrBgEFBQcDAjAdBgNVHQ4EFgQUYw+b
FGw3L3fySP5CNMg4C2q0cjIwHwYDVR0jBBgwFoAU/m1nsBHku89w4HWmHCEzgxUy
W3swPQYIKwYBBQUHAQEEMTAvMC0GCCsGAQUFBzAChiFodHRwOi8vZXhhbXBsZS5j
b20vY2EvY2x1c3Rlci5jZXIwMgYDVR0fBCswKTAnoCWgI4YhaHR0cDovL2V4YW1w
bGUuY29tL2NhL2NsdXN0ZXIuY3JsMBQGA1UdEQQNMAuCCWxvY2FsaG9zdDANBgkq
hkiG9w0BAQUFAAOCAQEASFY6mn8X5XdPcfUGwoqzebeOIyOccflY/28dST7c/Sca
ix5psMrx2fQhTM+Ys3neYv0sx1FE114D/ub3jiFKmpUYomCON1EuEPJx3VX0Q+Dv
GoXlQoYPLc8Kyo5sAD60UN2nG2efUDRfZtK3dlrYKnTXq82AYfjgdXJdmOnfZEkk
v7wfBJokE5j64f7C5ZDI0P8eFRtTt+N2z/cPNO+GZERrlb0VDExcg3WJvhuzHxds
z/sGbHLjHiI73oWntmY4ZPVjZsxJqO6Kzzfl3xt9ksgpRRBzoQ7Sq7vqP1peMyd3
NlKDWGgtO6Bf9W7BOZ4RJxni8KYMFPqAXM4U88s7vA==
-----END CERTIFICATE-----
