Certificate:
    Data:
        Version: 3 (0x2)
        Serial Number: 4 (0x4)
        Signature Algorithm: sha256WithRSAEncryption
        Issuer: C=SE, O=Example, OU=Example Certificate Authority, CN=Example Cluster Authority
        Validity
            Not Before: Nov 26 11:09:47 2021 GMT
            Not After : May 19 11:09:47 2027 GMT
        Subject: C=SE, O=Example, OU=Example Cluster, CN=Server 3
        Subject Public Key Info:
            Public Key Algorithm: rsaEncryption
                RSA Public-Key: (2048 bit)
                Modulus:
                    00:b4:01:83:0c:89:f3:88:e1:6a:e4:c2:d2:32:17:
                    6d:4a:a7:88:2e:bc:92:a4:33:05:92:c4:9b:d7:84:
                    90:ee:c5:b2:fb:2d:a6:4d:8d:87:82:77:d8:bb:51:
                    ff:1e:de:44:d7:3b:55:00:cc:6b:62:ac:de:d3:40:
                    1b:77:f8:73:20:b0:d0:c0:cb:32:26:b8:9c:b1:ec:
                    c5:64:85:f7:19:1f:b7:1e:aa:fa:08:34:a9:22:6e:
                    de:60:b8:2e:6c:23:1d:8f:41:07:d1:7a:19:c2:a2:
                    d2:9a:84:45:3e:ab:db:d0:37:d4:76:a9:9f:d9:fe:
                    13:2d:e6:ca:59:86:8d:44:e7:af:38:45:04:cf:fb:
                    93:c1:73:5e:26:e4:ad:de:b5:51:07:13:00:42:cc:
                    21:78:bb:ef:b2:e7:fb:52:b3:5d:20:bf:aa:74:88:
                    ea:75:65:38:9d:ed:a1:1f:4e:ce:1f:cf:22:2f:7f:
                    55:5b:ed:d1:c2:db:ea:de:9a:83:1a:04:1d:3f:5f:
                    19:97:18:24:0a:26:b9:37:fc:37:17:71:18:8b:e1:
                    8b:bf:60:a9:b4:a7:95:38:a5:d5:d1:a7:5f:4b:f8:
                    66:33:b9:7c:68:41:67:8f:97:ef:1a:de:b0:fe:ee:
                    cb:40:d7:b8:00:8f:7e:a8:ef:37:5f:fd:56:e2:d7:
                    0b:df
                Exponent: 65537 (0x10001)
        X509v3 extensions:
            X509v3 Key Usage: critical
                Digital Signature, Key Encipherment
            X509v3 Basic Constraints: 
                CA:FALSE
            X509v3 Extended Key Usage: 
                TLS Web Server Authentication, TLS Web Client Authentication
            X509v3 Subject Key Identifier: 
                91:6F:75:64:B0:D2:AC:23:BF:58:94:F5:9B:5D:F3:A5:5C:E5:86:37
            X509v3 Authority Key Identifier: 
                keyid:83:BA:16:EC:04:23:A7:40:34:8B:A0:3A:35:ED:CE:B6:E8:95:8E:2D

            Authority Information Access: 
                CA Issuers - URI:http://example.com/ca/cluster.cer

            X509v3 CRL Distribution Points: 

                Full Name:
                  URI:http://example.com/ca/cluster.crl

            X509v3 Subject Alternative Name: 
                DNS:localhost
    Signature Algorithm: sha256WithRSAEncryption
         11:00:5d:61:82:f9:6f:8c:82:7e:6a:bc:52:a9:02:25:00:b8:
         42:df:3c:d3:fb:b6:4c:09:9b:ae:82:45:1f:3d:f4:82:18:29:
         19:68:f1:4f:1d:b5:ef:52:61:16:c9:5f:df:67:cd:d2:2b:03:
         0c:04:0e:51:02:83:07:99:fd:f6:f9:2b:15:bd:b9:1c:bf:9f:
         16:17:4d:ff:d5:4f:d2:b5:76:ea:2a:10:a8:2b:db:b7:42:01:
         27:53:4b:08:1a:4c:b2:ff:4f:17:34:7c:f1:f0:b0:42:42:3b:
         ae:ca:54:bd:be:1d:9f:68:13:4d:48:8f:9d:0b:71:22:d5:1e:
         aa:65:a5:46:94:83:f8:f8:70:b6:66:f8:9b:a6:ff:98:1a:bb:
         24:58:26:67:ce:15:0d:e8:04:76:fd:9d:df:5a:9b:9d:2b:a0:
         f2:e2:8b:2c:12:8c:62:89:af:72:2c:4a:b1:b1:6b:c0:ca:f0:
         5c:00:e5:7c:93:56:24:28:dc:91:45:ad:66:c1:28:17:fa:e9:
         48:73:ea:d1:75:95:cd:14:99:a2:34:3e:fa:f5:24:f2:aa:92:
         50:01:db:60:be:d7:2f:1a:cc:1b:89:6c:80:ca:6b:88:83:8a:
         1f:83:ea:ae:d8:40:9b:8d:d7:73:59:9c:dd:86:3e:00:cc:19:
         4a:83:e8:24
-----BEGIN CERTIFICATE-----
MIIEOzCCAyOgAwIBAgIBBDANBgkqhkiG9w0BAQsFADBrMQswCQYDVQQGEwJTRTEQ
MA4GA1UECgwHRXhhbXBsZTEmMCQGA1UECwwdRXhhbXBsZSBDZXJ0aWZpY2F0ZSBB
dXRob3JpdHkxIjAgBgNVBAMMGUV4YW1wbGUgQ2x1c3RlciBBdXRob3JpdHkwHhcN
MjExMTI2MTEwOTQ3WhcNMjcwNTE5MTEwOTQ3WjBMMQswCQYDVQQGEwJTRTEQMA4G
A1UECgwHRXhhbXBsZTEYMBYGA1UECwwPRXhhbXBsZSBDbHVzdGVyMREwDwYDVQQD
DAhTZXJ2ZXIgMzCCASIwDQYJKoZIhvcNAQEBBQADggEPADCCAQoCggEBALQBgwyJ
84jhauTC0jIXbUqniC68kqQzBZLEm9eEkO7Fsvstpk2Nh4J32LtR/x7eRNc7VQDM
a2Ks3tNAG3f4cyCw0MDLMia4nLHsxWSF9xkftx6q+gg0qSJu3mC4LmwjHY9BB9F6
GcKi0pqERT6r29A31Hapn9n+Ey3mylmGjUTnrzhFBM/7k8FzXibkrd61UQcTAELM
IXi777Ln+1KzXSC/qnSI6nVlOJ3toR9Ozh/PIi9/VVvt0cLb6t6agxoEHT9fGZcY
JAomuTf8NxdxGIvhi79gqbSnlTil1dGnX0v4ZjO5fGhBZ4+X7xresP7uy0DXuACP
fqjvN1/9VuLXC98CAwEAAaOCAQcwggEDMA4GA1UdDwEB/wQEAwIFoDAJBgNVHRME
AjAAMB0GA1UdJQQWMBQGCCsGAQUFBwMBBggrBgEFBQcDAjAdBgNVHQ4EFgQUkW91
ZLDSrCO/WJT1m13zpVzlhjcwHwYDVR0jBBgwFoAUg7oW7AQjp0A0i6A6Ne3OtuiV
ji0wPQYIKwYBBQUHAQEEMTAvMC0GCCsGAQUFBzAChiFodHRwOi8vZXhhbXBsZS5j
b20vY2EvY2x1c3Rlci5jZXIwMgYDVR0fBCswKTAnoCWgI4YhaHR0cDovL2V4YW1w
bGUuY29tL2NhL2NsdXN0ZXIuY3JsMBQGA1UdEQQNMAuCCWxvY2FsaG9zdDANBgkq
hkiG9w0BAQsFAAOCAQEAEQBdYYL5b4yCfmq8UqkCJQC4Qt880/u2TAmbroJFHz30
ghgpGWjxTx2171JhFslf32fN0isDDAQOUQKDB5n99vkrFb25HL+fFhdN/9VP0rV2
6ioQqCvbt0IBJ1NLCBpMsv9PFzR88fCwQkI7rspUvb4dn2gTTUiPnQtxItUeqmWl
RpSD+Phwtmb4m6b/mBq7JFgmZ84VDegEdv2d31qbnSug8uKLLBKMYomvcixKsbFr
wMrwXADlfJNWJCjckUWtZsEoF/rpSHPq0XWVzRSZojQ++vUk8qqSUAHbYL7XLxrM
G4lsgMpriIOKH4PqrthAm43Xc1mc3YY+AMwZSoPoJA==
-----END CERTIFICATE-----
