Certificate:
    Data:
        Version: 3 (0x2)
        Serial Number: 5 (0x5)
        Signature Algorithm: sha256WithRSAEncryption
        Issuer: C=SE, O=Example, OU=Example Certificate Authority, CN=Example Cluster Authority
        Validity
            Not Before: Nov 26 11:09:47 2021 GMT
            Not After : May 19 11:09:47 2027 GMT
        Subject: C=SE, O=Example, OU=Example Cluster, CN=Server 4
        Subject Public Key Info:
            Public Key Algorithm: rsaEncryption
                RSA Public-Key: (2048 bit)
                Modulus:
                    00:ca:51:84:2b:47:14:2a:6d:b5:19:dc:60:66:c6:
                    de:bb:70:c1:65:76:ef:78:54:ec:7f:ac:be:fb:e3:
                    e2:44:00:93:e2:be:0b:a2:c0:85:56:77:a6:ba:8e:
                    b2:53:28:e1:7b:a9:84:0f:69:40:e7:dd:b5:eb:2b:
                    ee:7b:e1:da:2a:b4:4a:2b:5a:3c:b0:3a:dd:80:e5:
                    d6:16:bc:3a:8c:ea:c9:e5:dd:80:ed:da:46:2d:f2:
                    ba:44:5d:49:66:3a:a0:03:79:bc:92:38:7f:c1:f8:
                    c3:2e:c7:80:0a:ee:61:ac:64:d1:c7:e3:ae:de:ca:
                    9f:8b:d3:2b:f5:d8:2d:79:37:33:dc:eb:43:07:d1:
                    b2:e5:e5:86:50:c2:87:d8:04:71:7c:56:df:e2:31:
                    e8:d1:c6:69:20:4a:22:ff:e0:95:52:08:13:82:d3:
                    77:05:04:cf:e3:a1:78:17:e9:75:34:5b:77:09:fc:
                    3a:3d:17:5b:fb:f7:80:c9:92:8c:8c:93:6f:94:96:
                    4b:37:cb:3b:11:be:51:b5:d6:25:2e:4f:11:4c:d3:
                    d0:ad:d2:4b:6b:51:d9:42:ca:63:0c:ee:d0:4e:e4:
                    44:87:b7:38:d1:67:ef:b3:7e:ec:3a:e5:d0:5c:62:
                    a2:27:26:f0:d3:61:6f:ea:ea:e5:29:b4:c7:e9:69:
                    0a:4b
                Exponent: 65537 (0x10001)
        X509v3 extensions:
            X509v3 Key Usage: critical
                Digital Signature, Key Encipherment
            X509v3 Basic Constraints: 
                CA:FALSE
            X509v3 Extended Key Usage: 
                TLS Web Server Authentication, TLS Web Client Authentication
            X509v3 Subject Key Identifier: 
                46:D9:0E:54:FE:F6:96:44:60:AD:81:EE:B4:52:DB:AF:E4:6B:AC:2C
            X509v3 Authority Key Identifier: 
                keyid:83:BA:16:EC:04:23:A7:40:34:8B:A0:3A:35:ED:CE:B6:E8:95:8E:2D

            Authority Information Access: 
                CA Issuers - URI:http://example.com/ca/cluster.cer

            X509v3 CRL Distribution Points: 

                Full Name:
                  URI:http://example.com/ca/cluster.crl

            X509v3 Subject Alternative Name: 
                DNS:localhost
    Signature Algorithm: sha256WithRSAEncryption
         ad:3e:6b:c9:2b:02:da:d9:04:27:c3:5d:f6:8a:b1:f1:a2:e3:
         cf:8d:87:0a:e1:75:97:d9:1f:41:65:02:da:3c:c4:3f:cb:29:
         af:4b:a8:f0:f8:78:de:7f:03:0a:21:4d:88:a3:33:bf:fb:62:
         80:7f:da:62:7d:4b:fd:c3:9b:8c:55:2b:6b:93:9d:45:a1:0f:
         94:d2:c8:86:8a:5d:82:df:c9:29:7c:0c:4e:27:f7:ab:2d:f2:
         3a:aa:c7:46:24:75:d2:dd:e7:54:7b:5e:f8:15:d4:40:cc:1d:
         55:7a:78:b8:0c:df:28:ef:96:77:40:6c:ca:63:80:21:a7:1e:
         7a:d0:d7:f0:d3:07:db:71:70:da:b0:2b:93:ae:d8:c2:16:e7:
         6e:66:1d:f1:96:97:8b:63:7a:dd:46:04:ff:13:aa:3f:49:a4:
         2a:1a:84:cd:62:b7:dd:4f:28:c2:8b:8e:f8:a7:da:87:62:a5:
         ec:0b:ba:e4:89:7b:a1:ee:a5:e2:02:3f:e7:08:19:38:18:49:
         09:58:9e:ce:75:21:f3:7b:f6:54:e9:20:96:7a:c6:d9:d8:07:
         45:64:c9:28:1d:22:4d:34:3d:f1:fb:1e:60:04:13:38:93:bb:
         c4:a8:f4:b7:c9:f4:77:cd:ee:6e:bd:cc:0e:3a:cb:2b:1d:d1:
         6b:83:23:7c
-----BEGIN CERTIFICATE-----
MIIEOzCCAyOgAwIBAgIBBTANBgkqhkiG9w0BAQsFADBrMQswCQYDVQQGEwJTRTEQ
MA4GA1UECgwHRXhhbXBsZTEmMCQGA1UECwwdRXhhbXBsZSBDZXJ0aWZpY2F0ZSBB
dXRob3JpdHkxIjAgBgNVBAMMGUV4YW1wbGUgQ2x1c3RlciBBdXRob3JpdHkwHhcN
MjExMTI2MTEwOTQ3WhcNMjcwNTE5MTEwOTQ3WjBMMQswCQYDVQQGEwJTRTEQMA4G
A1UECgwHRXhhbXBsZTEYMBYGA1UECwwPRXhhbXBsZSBDbHVzdGVyMREwDwYDVQQD
DAhTZXJ2ZXIgNDCCASIwDQYJKoZIhvcNAQEBBQADggEPADCCAQoCggEBAMpRhCtH
FCpttRncYGbG3rtwwWV273hU7H+svvvj4kQAk+K+C6LAhVZ3prqOslMo4XuphA9p
QOfdtesr7nvh2iq0SitaPLA63YDl1ha8OozqyeXdgO3aRi3yukRdSWY6oAN5vJI4
f8H4wy7HgAruYaxk0cfjrt7Kn4vTK/XYLXk3M9zrQwfRsuXlhlDCh9gEcXxW3+Ix
6NHGaSBKIv/glVIIE4LTdwUEz+OheBfpdTRbdwn8Oj0XW/v3gMmSjIyTb5SWSzfL
OxG+UbXWJS5PEUzT0K3SS2tR2ULKYwzu0E7kRIe3ONFn77N+7Drl0Fxioicm8NNh
b+rq5Sm0x+lpCksCAwEAAaOCAQcwggEDMA4GA1UdDwEB/wQEAwIFoDAJBgNVHRME
AjAAMB0GA1UdJQQWMBQGCCsGAQUFBwMBBggrBgEFBQcDAjAdBgNVHQ4EFgQURtkO
VP72lkRgrYHutFLbr+RrrCwwHwYDVR0jBBgwFoAUg7oW7AQjp0A0i6A6Ne3OtuiV
ji0wPQYIKwYBBQUHAQEEMTAvMC0GCCsGAQUFBzAChiFodHRwOi8vZXhhbXBsZS5j
b20vY2EvY2x1c3Rlci5jZXIwMgYDVR0fBCswKTAnoCWgI4YhaHR0cDovL2V4YW1w
bGUuY29tL2NhL2NsdXN0ZXIuY3JsMBQGA1UdEQQNMAuCCWxvY2FsaG9zdDANBgkq
hkiG9w0BAQsFAAOCAQEArT5rySsC2tkEJ8Nd9oqx8aLjz42HCuF1l9kfQWUC2jzE
P8spr0uo8Ph43n8DCiFNiKMzv/tigH/aYn1L/cObjFUra5OdRaEPlNLIhopdgt/J
KXwMTif3qy3yOqrHRiR10t3nVHte+BXUQMwdVXp4uAzfKO+Wd0BsymOAIaceetDX
8NMH23Fw2rArk67YwhbnbmYd8ZaXi2N63UYE/xOqP0mkKhqEzWK33U8owouO+Kfa
h2Kl7Au65Il7oe6l4gI/5wgZOBhJCVieznUh83v2VOkglnrG2dgHRWTJKB0iTTQ9
8fseYAQTOJO7xKj0t8n0d83ubr3MDjrLKx3Ra4MjfA==
-----END CERTIFICATE-----
