Certificate:
    Data:
        Version: 3 (0x2)
        Serial Number: 5 (0x5)
        Signature Algorithm: sha1WithRSAEncryption
        Issuer: C=SE, O=Example, OU=Example Certificate Authority, CN=Example Cluster Authority
        Validity
            Not Before: Jan  9 14:58:45 2024 GMT
            Not After : Jul  1 14:58:45 2029 GMT
        Subject: C=SE, O=Example, OU=Example Cluster, CN=Server 4
        Subject Public Key Info:
            Public Key Algorithm: rsaEncryption
                Public-Key: (2048 bit)
                Modulus:
                    00:b8:99:44:5f:42:34:f5:a2:80:25:7d:14:ba:0d:
                    4a:f8:73:90:8e:1d:f7:9f:51:0c:c2:ed:73:33:04:
                    69:20:be:94:e1:17:32:a5:bc:ed:dd:53:e1:5e:18:
                    74:b8:96:81:00:cb:de:f0:e0:8c:87:37:b4:76:9e:
                    c7:23:82:16:1d:4d:79:ce:d5:a7:07:9f:1c:2e:d7:
                    16:d7:29:6e:27:28:dc:c7:1d:cd:ff:17:3f:2f:a7:
                    48:3d:f1:5e:29:e6:38:e1:70:85:51:64:cf:65:ac:
                    b8:9a:98:63:a9:52:90:b8:45:30:63:8d:12:00:a2:
                    ac:cc:cd:6f:e4:9c:ad:44:f7:3c:50:d3:13:79:f5:
                    4a:15:54:33:8f:88:b4:14:c3:11:e9:3f:be:a4:c1:
                    10:56:b8:73:f5:7f:aa:90:b5:43:9f:44:bb:75:23:
                    ad:de:46:65:34:e3:26:29:dd:aa:9e:d0:32:1d:5d:
                    74:ab:51:a2:5c:c2:66:06:d2:f6:55:f2:e5:62:2a:
                    1c:64:c4:9b:14:fe:e7:a6:f2:b0:79:a6:fa:23:86:
                    a8:ab:f7:05:ed:7d:7d:5d:f8:22:8a:b0:4e:bf:f1:
                    a3:f2:8e:56:12:c7:03:4c:ad:0e:e1:08:ad:74:5f:
                    3c:43:cc:7b:e5:4d:02:c8:4a:5c:80:44:33:17:89:
                    21:03
                Exponent: 65537 (0x10001)
        X509v3 extensions:
            X509v3 Key Usage: critical
                Digital Signature, Key Encipherment
            X509v3 Basic Constraints: 
                CA:FALSE
            X509v3 Extended Key Usage: 
                TLS Web Server Authentication, TLS Web Client Authentication
            X509v3 Subject Key Identifier: 
                1E:C9:93:66:01:A6:A5:D8:76:8A:1E:D8:56:23:52:42:1C:58:06:81
            X509v3 Authority Key Identifier: 
                FE:6D:67:B0:11:E4:BB:CF:70:E0:75:A6:1C:21:33:83:15:32:5B:7B
            Authority Information Access: 
                CA Issuers - URI:http://example.com/ca/cluster.cer
            X509v3 CRL Distribution Points: 
                Full Name:
                  URI:http://example.com/ca/cluster.crl
            X509v3 Subject Alternative Name: 
                DNS:localhost
    Signature Algorithm: sha1WithRSAEncryption
    Signature Value:
        c6:01:aa:cb:eb:93:2d:d1:d0:04:fc:e1:76:4e:97:ca:fc:bd:
        4c:ae:84:31:f1:ce:a5:45:87:49:d8:e1:33:6f:a2:57:11:25:
        ac:87:98:7e:76:75:10:d1:b8:b3:6c:d6:bb:16:1b:0b:b5:bd:
        ff:42:c3:57:5a:24:2c:1c:12:c3:de:b3:8b:e2:10:1b:40:84:
        cb:5f:34:98:c4:71:fe:f0:0d:08:26:ae:b2:c4:69:97:a3:0d:
        c9:da:bb:77:60:8b:30:06:e3:aa:0d:cd:f6:88:40:25:97:4d:
        45:3b:fc:e8:6e:35:f0:e4:d1:84:dc:9c:c6:95:2f:1f:37:e6:
        25:db:ef:b0:a1:50:6c:b6:48:83:42:6d:d7:f0:9b:4c:73:44:
        ba:a7:cf:24:0b:42:c3:e1:61:77:21:42:69:3a:fe:6f:8e:40:
        3d:2c:ee:6a:34:e3:fb:f8:fd:1b:76:97:9d:cc:58:63:4f:79:
        a5:a7:fa:26:cf:b7:c1:1d:c4:c3:e9:36:35:60:fe:b3:4a:a9:
        cb:4e:9f:71:83:45:d0:c2:12:21:3f:8a:0f:69:0e:77:37:08:
        06:29:fc:7d:18:1a:3e:2f:c1:1f:52:6e:1a:05:a9:85:41:a0:
        f2:09:e5:13:d1:50:67:73:a8:aa:7d:58:1d:86:63:c6:b8:0d:
        b7:89:b2:c4
-----BEGIN CERTIFICATE-----
MIIEOzCCAyOgAwIBAgIBBTANBgkqhkiG9w0BAQUFADBrMQswCQYDVQQGEwJTRTEQ
MA4GA1UECgwHRXhhbXBsZTEmMCQGA1UECwwdRXhhbXBsZSBDZXJ0aWZpY2F0ZSBB
dXRob3JpdHkxIjAgBgNVBAMMGUV4YW1wbGUgQ2x1c3RlciBBdXRob3JpdHkwHhcN
MjQwMTA5MTQ1ODQ1WhcNMjkwNzAxMTQ1ODQ1WjBMMQswCQYDVQQGEwJTRTEQMA4G
A1UECgwHRXhhbXBsZTEYMBYGA1UECwwPRXhhbXBsZSBDbHVzdGVyMREwDwYDVQQD
DAhTZXJ2ZXIgNDCCASIwDQYJKoZIhvcNAQEBBQADggEPADCCAQoCggEBALiZRF9C
NPWigCV9FLoNSvhzkI4d959RDMLtczMEaSC+lOEXMqW87d1T4V4YdLiWgQDL3vDg
jIc3tHaexyOCFh1Nec7VpwefHC7XFtcpbico3Mcdzf8XPy+nSD3xXinmOOFwhVFk
z2WsuJqYY6lSkLhFMGONEgCirMzNb+ScrUT3PFDTE3n1ShVUM4+ItBTDEek/vqTB
EFa4c/V/qpC1Q59Eu3Ujrd5GZTTjJindqp7QMh1ddKtRolzCZgbS9lXy5WIqHGTE
mxT+56bysHmm+iOGqKv3Be19fV34IoqwTr/xo/KOVhLHA0ytDuEIrXRfPEPMe+VN
AshKXIBEMxeJIQMCAwEAAaOCAQcwggEDMA4GA1UdDwEB/wQEAwIFoDAJBgNVHRME
AjAAMB0GA1UdJQQWMBQGCCsGAQUFBwMBBggrBgEFBQcDAjAdBgNVHQ4EFgQUHsmT
ZgGmpdh2ih7YViNSQhxYBoEwHwYDVR0jBBgwFoAU/m1nsBHku89w4HWmHCEzgxUy
W3swPQYIKwYBBQUHAQEEMTAvMC0GCCsGAQUFBzAChiFodHRwOi8vZXhhbXBsZS5j
b20vY2EvY2x1c3Rlci5jZXIwMgYDVR0fBCswKTAnoCWgI4YhaHR0cDovL2V4YW1w
bGUuY29tL2NhL2NsdXN0ZXIuY3JsMBQGA1UdEQQNMAuCCWxvY2FsaG9zdDANBgkq
hkiG9w0BAQUFAAOCAQEAxgGqy+uTLdHQBPzhdk6Xyvy9TK6EMfHOpUWHSdjhM2+i
VxElrIeYfnZ1ENG4s2zWuxYbC7W9/0LDV1okLBwSw96zi+IQG0CEy180mMRx/vAN
CCaussRpl6MNydq7d2CLMAbjqg3N9ohAJZdNRTv86G418OTRhNycxpUvHzfmJdvv
sKFQbLZIg0Jt1/CbTHNEuqfPJAtCw+FhdyFCaTr+b45APSzuajTj+/j9G3aXncxY
Y095paf6Js+3wR3Ew+k2NWD+s0qpy06fcYNF0MISIT+KD2kOdzcIBin8fRgaPi/B
H1JuGgWphUGg8gnlE9FQZ3Ooqn1YHYZjxrgNt4myxA==
-----END CERTIFICATE-----
