Certificate:
    Data:
        Version: 3 (0x2)
        Serial Number: 3 (0x3)
        Signature Algorithm: sha1WithRSAEncryption
        Issuer: C=SE, O=Example, OU=Example Certificate Authority, CN=Example Cluster Authority
        Validity
            Not Before: Jan  9 14:58:45 2024 GMT
            Not After : Jul  1 14:58:45 2029 GMT
        Subject: C=SE, O=Example, OU=Example Cluster, CN=Server 2
        Subject Public Key Info:
            Public Key Algorithm: rsaEncryption
                Public-Key: (2048 bit)
                Modulus:
                    00:f1:81:a4:96:63:a7:3d:aa:c9:9f:8d:d3:d4:1b:
                    4e:98:1e:87:ff:c5:8d:6c:94:18:d2:93:f7:e5:29:
                    ee:34:c4:33:98:c2:24:68:5d:62:96:8e:96:c2:9e:
                    86:d0:bf:c4:5f:3b:28:fa:3c:78:08:fc:e3:5d:62:
                    46:29:99:8d:9d:22:ca:75:9e:00:03:c0:03:ca:e9:
                    94:6b:4f:46:73:8c:1e:57:34:f3:a0:e1:f2:dc:be:
                    72:62:c0:e0:24:67:44:34:38:6f:ba:e1:89:9a:5d:
                    4d:fc:a3:a6:7c:e0:69:c7:3a:a7:1b:54:49:5f:fc:
                    b0:de:b5:7d:6d:7a:44:ea:ea:91:5f:35:75:60:de:
                    fb:32:9b:e8:aa:bd:e2:a1:61:42:ff:18:b2:bf:76:
                    28:5e:ba:0b:45:40:ef:e9:5c:9d:d7:75:bf:8a:b4:
                    96:41:ad:5f:72:be:b5:6e:45:cc:76:b6:32:4b:1c:
                    27:71:8d:bc:b9:65:75:92:25:b2:f2:eb:8b:66:4a:
                    d3:c2:ef:d6:d7:33:f6:42:83:ac:99:9a:a2:43:a0:
                    31:96:55:60:5f:73:20:26:3c:50:0f:e7:be:67:95:
                    06:01:2d:25:a9:69:e6:3f:a7:93:48:87:a0:e0:04:
                    4c:3b:80:e5:90:ce:d3:48:96:f2:91:15:7f:6e:96:
                    b2:91
                Exponent: 65537 (0x10001)
        X509v3 extensions:
            X509v3 Key Usage: critical
                Digital Signature, Key Encipherment
            X509v3 Basic Constraints: 
                CA:FALSE
            X509v3 Extended Key Usage: 
                TLS Web Server Authentication, TLS Web Client Authentication
            X509v3 Subject Key Identifier: 
                28:36:65:79:8F:E9:F3:B8:67:24:82:4F:BC:BF:AC:B4:18:67:5C:AD
            X509v3 Authority Key Identifier: 
                FE:6D:67:B0:11:E4:BB:CF:70:E0:75:A6:1C:21:33:83:15:32:5B:7B
            Authority Information Access: 
                CA Issuers - URI:http://example.com/ca/cluster.cer
            X509v3 CRL Distribution Points: 
                Full Name:
                  URI:http://example.com/ca/cluster.crl
            X509v3 Subject Alternative Name: 
                DNS:localhost
    Signature Algorithm: sha1WithRSAEncryption
    Signature Value:
        84:48:52:4c:2d:44:ae:97:b5:41:12:c7:43:7a:2d:0a:2b:66:
        e5:05:36:dc:a6:b9:ff:71:13:49:ba:6f:85:f5:34:dd:7e:0a:
        1b:af:41:8a:b3:ec:c4:c4:05:31:8d:65:7d:00:5a:b9:22:82:
        d2:c5:1d:c1:d6:c3:68:19:25:3e:59:36:d4:cf:12:d6:69:d9:
        99:29:a7:fb:d6:21:d9:bb:3c:e1:fc:97:fa:f1:85:fa:c2:6d:
        04:55:af:ff:32:37:87:d3:19:fd:0e:32:7e:ee:c6:a3:5c:50:
        5b:3f:25:5c:9d:fc:16:9c:b1:e2:44:26:b2:55:d8:d9:33:d5:
        af:20:35:98:a1:24:73:0a:a1:f4:77:3a:cb:9b:b6:df:18:c7:
        d8:38:8e:eb:73:61:d5:69:64:d7:49:ca:98:80:5c:dd:24:53:
        5d:e4:99:1b:60:0c:a0:cb:a5:6b:8c:a8:8b:1c:f8:a6:38:f9:
        74:8e:9a:b6:7d:9e:b7:06:e1:c1:11:fb:81:6d:c6:94:64:d3:
        ea:b1:ae:08:be:bb:a5:47:d0:a5:ed:c4:11:3c:b9:d5:3d:56:
        d5:1a:cf:05:66:9d:f0:84:19:ce:d8:e2:b8:f7:23:16:1b:af:
        18:84:f8:cf:0f:8b:b7:bf:01:85:62:20:bc:45:02:68:28:13:
        06:13:a5:4d
-----BEGIN CERTIFICATE-----
MIIEOzCCAyOgAwIBAgIBAzANBgkqhkiG9w0BAQUFADBrMQswCQYDVQQGEwJTRTEQ
MA4GA1UECgwHRXhhbXBsZTEmMCQGA1UECwwdRXhhbXBsZSBDZXJ0aWZpY2F0ZSBB
dXRob3JpdHkxIjAgBgNVBAMMGUV4YW1wbGUgQ2x1c3RlciBBdXRob3JpdHkwHhcN
MjQwMTA5MTQ1ODQ1WhcNMjkwNzAxMTQ1ODQ1WjBMMQswCQYDVQQGEwJTRTEQMA4G
A1UECgwHRXhhbXBsZTEYMBYGA1UECwwPRXhhbXBsZSBDbHVzdGVyMREwDwYDVQQD
DAhTZXJ2ZXIgMjCCASIwDQYJKoZIhvcNAQEBBQADggEPADCCAQoCggEBAPGBpJZj
pz2qyZ+N09QbTpgeh//FjWyUGNKT9+Up7jTEM5jCJGhdYpaOlsKehtC/xF87KPo8
eAj8411iRimZjZ0iynWeAAPAA8rplGtPRnOMHlc086Dh8ty+cmLA4CRnRDQ4b7rh
iZpdTfyjpnzgacc6pxtUSV/8sN61fW16ROrqkV81dWDe+zKb6Kq94qFhQv8Ysr92
KF66C0VA7+lcndd1v4q0lkGtX3K+tW5FzHa2MkscJ3GNvLlldZIlsvLri2ZK08Lv
1tcz9kKDrJmaokOgMZZVYF9zICY8UA/nvmeVBgEtJalp5j+nk0iHoOAETDuA5ZDO
00iW8pEVf26WspECAwEAAaOCAQcwggEDMA4GA1UdDwEB/wQEAwIFoDAJBgNVHRME
AjAAMB0GA1UdJQQWMBQGCCsGAQUFBwMBBggrBgEFBQcDAjAdBgNVHQ4EFgQUKDZl
eY/p87hnJIJPvL+stBhnXK0wHwYDVR0jBBgwFoAU/m1nsBHku89w4HWmHCEzgxUy
W3swPQYIKwYBBQUHAQEEMTAvMC0GCCsGAQUFBzAChiFodHRwOi8vZXhhbXBsZS5j
b20vY2EvY2x1c3Rlci5jZXIwMgYDVR0fBCswKTAnoCWgI4YhaHR0cDovL2V4YW1w
bGUuY29tL2NhL2NsdXN0ZXIuY3JsMBQGA1UdEQQNMAuCCWxvY2FsaG9zdDANBgkq
hkiG9w0BAQUFAAOCAQEAhEhSTC1Erpe1QRLHQ3otCitm5QU23Ka5/3ETSbpvhfU0
3X4KG69BirPsxMQFMY1lfQBauSKC0sUdwdbDaBklPlk21M8S1mnZmSmn+9Yh2bs8
4fyX+vGF+sJtBFWv/zI3h9MZ/Q4yfu7Go1xQWz8lXJ38Fpyx4kQmslXY2TPVryA1
mKEkcwqh9Hc6y5u23xjH2DiO63Nh1Wlk10nKmIBc3SRTXeSZG2AMoMula4yoixz4
pjj5dI6atn2etwbhwRH7gW3GlGTT6rGuCL67pUfQpe3EETy51T1W1RrPBWad8IQZ
ztjiuPcjFhuvGIT4zw+Lt78BhWIgvEUCaCgTBhOlTQ==
-----END CERTIFICATE-----
