Certificate:
    Data:
        Version: 3 (0x2)
        Serial Number: 3 (0x3)
        Signature Algorithm: sha256WithRSAEncryption
        Issuer: C=SE, O=Example, OU=Example Certificate Authority, CN=Example Cluster Authority
        Validity
            Not Before: Nov 26 11:09:47 2021 GMT
            Not After : May 19 11:09:47 2027 GMT
        Subject: C=SE, O=Example, OU=Example Cluster, CN=Server 2
        Subject Public Key Info:
            Public Key Algorithm: rsaEncryption
                RSA Public-Key: (2048 bit)
                Modulus:
                    00:d9:aa:8e:fd:6d:15:17:51:54:a6:1e:cb:e7:d3:
                    80:da:ca:14:c9:28:78:93:bb:48:db:9c:bb:a1:76:
                    96:97:8a:0d:78:a0:ea:ee:8e:ac:21:b2:d2:31:ab:
                    02:29:e1:a4:43:33:9a:c0:93:aa:da:81:97:9a:8b:
                    5d:f0:d2:5d:b8:e1:5c:c3:b2:45:3c:0d:99:b8:51:
                    c3:dd:f5:e3:18:01:77:e9:e6:7b:f8:d2:97:89:8d:
                    69:ab:ea:ec:35:53:e4:81:6c:4e:63:0a:48:df:99:
                    07:5f:62:fc:84:52:c7:40:02:fa:bf:52:2e:27:59:
                    3b:ab:47:e8:70:1b:c6:5b:d7:04:6a:a0:b7:34:5d:
                    f0:a0:2f:5e:c0:c4:fb:f6:8d:07:6a:db:e6:bb:90:
                    76:91:e4:bb:bb:37:9c:4e:bf:5d:d2:df:f5:af:c5:
                    8b:5b:9a:5a:87:f3:9b:d3:c7:cb:cd:cb:fe:a5:b2:
                    5d:62:39:b9:21:53:69:fe:89:81:eb:ae:f0:2d:ac:
                    a1:bb:c4:7b:f8:9b:fb:eb:7a:47:71:92:04:7d:72:
                    62:3c:0a:64:60:07:3f:e9:37:e1:0e:ed:b6:97:58:
                    38:4d:d2:d1:22:4e:21:16:d4:c5:84:06:0d:6c:0a:
                    39:72:b4:1f:41:c2:4a:57:55:1f:93:90:e4:2b:1b:
                    14:2f
                Exponent: 65537 (0x10001)
        X509v3 extensions:
            X509v3 Key Usage: critical
                Digital Signature, Key Encipherment
            X509v3 Basic Constraints: 
                CA:FALSE
            X509v3 Extended Key Usage: 
                TLS Web Server Authentication, TLS Web Client Authentication
            X509v3 Subject Key Identifier: 
                5B:36:11:49:48:11:0F:59:04:50:04:94:5A:4C:94:2A:D5:D4:A6:31
            X509v3 Authority Key Identifier: 
                keyid:83:BA:16:EC:04:23:A7:40:34:8B:A0:3A:35:ED:CE:B6:E8:95:8E:2D

            Authority Information Access: 
                CA Issuers - URI:http://example.com/ca/cluster.cer

            X509v3 CRL Distribution Points: 

                Full Name:
                  URI:http://example.com/ca/cluster.crl

            X509v3 Subject Alternative Name: 
                DNS:localhost
    Signature Algorithm: sha256WithRSAEncryption
         41:7a:58:1a:9e:a0:a3:78:42:78:76:4d:7f:d5:42:4e:b3:d6:
         26:c3:26:50:8b:03:c1:aa:47:3e:38:23:49:06:3e:c9:36:77:
         62:e9:ff:bd:e8:cb:7c:07:88:a2:74:07:2a:e6:85:80:64:cd:
         66:be:2a:8f:fb:0b:36:73:6e:6c:8f:9d:f7:1f:d0:11:2c:f2:
         f5:5d:5a:b5:b3:dc:fe:ce:dc:15:04:c1:d5:5f:70:7e:a8:2e:
         a6:4a:07:71:28:04:bb:bd:c2:e8:30:93:81:41:9c:30:e5:8f:
         08:67:a9:db:8d:e8:e7:a3:05:a0:80:5e:17:ed:6e:26:5b:71:
         ea:12:6f:f4:01:61:97:0d:a0:94:9f:36:3c:e6:45:78:e3:fc:
         1a:b5:ee:7a:a2:15:5d:8e:2b:14:ee:20:72:00:15:80:dd:36:
         95:5e:a3:38:55:d3:b1:fb:81:79:03:51:87:0e:79:48:d0:bf:
         5a:ce:7e:88:ba:7d:c5:f3:89:ec:59:d7:f6:07:31:40:e1:24:
         6d:ab:63:69:36:18:a8:be:7e:32:f1:e1:bf:53:a0:48:75:88:
         af:41:00:63:dd:0f:97:bc:86:11:ec:6e:f7:44:6a:42:d3:d0:
         5a:56:f6:b9:8c:39:5f:b2:ec:98:dc:44:2c:7e:09:a1:73:21:
         db:c9:ba:4a
-----BEGIN CERTIFICATE-----
MIIEOzCCAyOgAwIBAgIBAzANBgkqhkiG9w0BAQsFADBrMQswCQYDVQQGEwJTRTEQ
MA4GA1UECgwHRXhhbXBsZTEmMCQGA1UECwwdRXhhbXBsZSBDZXJ0aWZpY2F0ZSBB
dXRob3JpdHkxIjAgBgNVBAMMGUV4YW1wbGUgQ2x1c3RlciBBdXRob3JpdHkwHhcN
MjExMTI2MTEwOTQ3WhcNMjcwNTE5MTEwOTQ3WjBMMQswCQYDVQQGEwJTRTEQMA4G
A1UECgwHRXhhbXBsZTEYMBYGA1UECwwPRXhhbXBsZSBDbHVzdGVyMREwDwYDVQQD
DAhTZXJ2ZXIgMjCCASIwDQYJKoZIhvcNAQEBBQADggEPADCCAQoCggEBANmqjv1t
FRdRVKYey+fTgNrKFMkoeJO7SNucu6F2lpeKDXig6u6OrCGy0jGrAinhpEMzmsCT
qtqBl5qLXfDSXbjhXMOyRTwNmbhRw9314xgBd+nme/jSl4mNaavq7DVT5IFsTmMK
SN+ZB19i/IRSx0AC+r9SLidZO6tH6HAbxlvXBGqgtzRd8KAvXsDE+/aNB2rb5ruQ
dpHku7s3nE6/XdLf9a/Fi1uaWofzm9PHy83L/qWyXWI5uSFTaf6Jgeuu8C2sobvE
e/ib++t6R3GSBH1yYjwKZGAHP+k34Q7ttpdYOE3S0SJOIRbUxYQGDWwKOXK0H0HC
SldVH5OQ5CsbFC8CAwEAAaOCAQcwggEDMA4GA1UdDwEB/wQEAwIFoDAJBgNVHRME
AjAAMB0GA1UdJQQWMBQGCCsGAQUFBwMBBggrBgEFBQcDAjAdBgNVHQ4EFgQUWzYR
SUgRD1kEUASUWkyUKtXUpjEwHwYDVR0jBBgwFoAUg7oW7AQjp0A0i6A6Ne3OtuiV
ji0wPQYIKwYBBQUHAQEEMTAvMC0GCCsGAQUFBzAChiFodHRwOi8vZXhhbXBsZS5j
b20vY2EvY2x1c3Rlci5jZXIwMgYDVR0fBCswKTAnoCWgI4YhaHR0cDovL2V4YW1w
bGUuY29tL2NhL2NsdXN0ZXIuY3JsMBQGA1UdEQQNMAuCCWxvY2FsaG9zdDANBgkq
hkiG9w0BAQsFAAOCAQEAQXpYGp6go3hCeHZNf9VCTrPWJsMmUIsDwapHPjgjSQY+
yTZ3Yun/vejLfAeIonQHKuaFgGTNZr4qj/sLNnNubI+d9x/QESzy9V1atbPc/s7c
FQTB1V9wfqgupkoHcSgEu73C6DCTgUGcMOWPCGep243o56MFoIBeF+1uJltx6hJv
9AFhlw2glJ82POZFeOP8GrXueqIVXY4rFO4gcgAVgN02lV6jOFXTsfuBeQNRhw55
SNC/Ws5+iLp9xfOJ7FnX9gcxQOEkbatjaTYYqL5+MvHhv1OgSHWIr0EAY90Pl7yG
Eexu90RqQtPQWlb2uYw5X7LsmNxELH4JoXMh28m6Sg==
-----END CERTIFICATE-----
