Certificate:
    Data:
        Version: 3 (0x2)
        Serial Number: 14895342359247964529 (0xceb6e2f4f2cdc971)
    Signature Algorithm: sha1WithRSAEncryption
        Issuer: C=SE, ST=Malm\xC3\x83\xC2\xB6, O=Neo Technology, CN=ca.neo4j.org/emailAddress=ca@neo4j.org
        Validity
            Not Before: May 12 11:12:52 2013 GMT
            Not After : Apr 18 11:12:52 2113 GMT
        Subject: C=SE, ST=Malm\xC3\x83\xC2\xB6, L=Malm\xC3\x83\xC2\xB6, O=Neo Technology, CN=direct.neo4j.org/emailAddress=direct@neo4j.org
        Subject Public Key Info:
            Public Key Algorithm: rsaEncryption
                Public-Key: (2048 bit)
                Modulus:
                    00:d9:de:2e:fe:2e:28:f5:ba:f8:a0:93:1d:e1:98:
                    bc:5c:5f:9c:23:22:b7:4b:e4:94:82:18:38:6c:27:
                    9b:9c:5d:5a:59:b3:7a:be:d5:e8:8f:ef:b2:f6:41:
                    d4:73:73:a5:79:f3:bc:67:be:d0:fc:6d:b0:dc:b8:
                    35:c7:3e:a3:bd:36:f1:47:15:4d:d7:0f:ab:95:be:
                    ff:60:03:a1:00:51:dd:7c:a9:bd:59:82:eb:f8:51:
                    a6:b9:8c:34:26:eb:03:66:76:61:aa:e5:ba:b9:6b:
                    ed:7f:c5:f3:9a:c2:39:14:3e:a2:f2:32:63:81:4d:
                    42:c1:b7:89:17:d3:4c:12:0c:61:8d:f8:9e:18:e3:
                    91:75:70:05:30:e6:fc:3b:0c:eb:fb:4b:e9:9f:d1:
                    1e:51:e6:3f:37:36:96:ad:4a:7c:b0:f7:58:fe:3c:
                    3b:e7:99:26:fb:0c:76:35:64:c9:cd:11:8d:70:91:
                    4c:1c:b2:2f:21:fd:d7:22:c0:27:0c:b6:d7:7f:11:
                    60:8d:e5:34:4e:d4:f7:cf:30:5a:9e:6d:16:62:4d:
                    8a:4e:2c:01:05:73:1e:3f:ea:d8:5e:17:d6:61:8f:
                    34:24:60:d9:7c:57:c9:90:9c:65:4e:3a:76:fa:41:
                    30:26:9b:da:7b:cb:5f:bf:fc:9c:b0:17:31:3f:4f:
                    60:c9
                Exponent: 65537 (0x10001)
        X509v3 extensions:
            X509v3 Basic Constraints: 
                CA:FALSE
            Netscape Comment: 
                OpenSSL Generated Certificate
            X509v3 Subject Key Identifier: 
                DD:62:16:D2:AD:86:55:D0:EC:F7:5F:81:55:C1:12:50:4E:E5:3E:04
            X509v3 Authority Key Identifier: 
                keyid:D3:4A:C7:C3:47:ED:99:CD:96:DB:5E:C2:D2:21:A5:61:60:8C:7F:06

    Signature Algorithm: sha1WithRSAEncryption
         af:a1:2d:c7:38:73:5f:96:2f:5b:c0:66:5f:ed:b5:d6:d5:29:
         6d:ed:8a:d8:32:62:3a:53:39:7b:a1:37:15:68:52:fa:b5:d7:
         29:82:5d:fe:62:c9:07:d9:0a:8a:11:9c:93:83:9d:a2:02:59:
         1b:0c:d7:b6:b4:51:17:ef:7d:a6:90:37:85:64:39:02:67:9e:
         6f:e7:1e:97:52:33:8a:05:3a:75:4a:f3:97:76:43:8c:72:0c:
         8a:2a:93:44:b8:80:39:7d:be:26:0d:cf:f8:db:5d:02:2c:01:
         77:4b:d5:ae:8e:1c:fa:89:9d:63:cf:1e:5c:39:06:99:a7:d1:
         bc:c3:ec:1a:54:29:8b:18:0f:88:05:37:6d:68:14:22:5a:d7:
         84:08:d7:0c:28:8f:e2:fc:cd:3d:37:7d:11:10:4d:8e:b0:83:
         95:41:bf:ff:48:20:f5:17:b3:ed:f7:b8:75:d8:30:93:03:1f:
         3c:cd:da:ab:dd:fb:06:42:d3:cb:cd:68:32:cf:b3:a3:70:db:
         b3:16:f3:ac:8d:ef:a6:20:58:cb:1e:d0:20:e8:bc:85:c9:71:
         27:60:05:2e:e1:87:8e:09:85:78:09:84:cd:7f:b4:bd:db:9a:
         5e:17:6b:66:35:32:fd:a0:cc:7b:12:e3:3f:bf:3a:15:e4:17:
         34:de:35:85
-----BEGIN CERTIFICATE-----
MIID9jCCAt6gAwIBAgIJAM624vTyzclxMA0GCSqGSIb3DQEBBQUAMG0xCzAJBgNV
BAYTAlNFMREwDwYDVQQIDAhNYWxtw4PCtjEXMBUGA1UECgwOTmVvIFRlY2hub2xv
Z3kxFTATBgNVBAMMDGNhLm5lbzRqLm9yZzEbMBkGCSqGSIb3DQEJARYMY2FAbmVv
NGoub3JnMCAXDTEzMDUxMjExMTI1MloYDzIxMTMwNDE4MTExMjUyWjCBiDELMAkG
A1UEBhMCU0UxETAPBgNVBAgMCE1hbG3Dg8K2MREwDwYDVQQHDAhNYWxtw4PCtjEX
MBUGA1UECgwOTmVvIFRlY2hub2xvZ3kxGTAXBgNVBAMMEGRpcmVjdC5uZW80ai5v
cmcxHzAdBgkqhkiG9w0BCQEWEGRpcmVjdEBuZW80ai5vcmcwggEiMA0GCSqGSIb3
DQEBAQUAA4IBDwAwggEKAoIBAQDZ3i7+Lij1uvigkx3hmLxcX5wjIrdL5JSCGDhs
J5ucXVpZs3q+1eiP77L2QdRzc6V587xnvtD8bbDcuDXHPqO9NvFHFU3XD6uVvv9g
A6EAUd18qb1Zguv4Uaa5jDQm6wNmdmGq5bq5a+1/xfOawjkUPqLyMmOBTULBt4kX
00wSDGGN+J4Y45F1cAUw5vw7DOv7S+mf0R5R5j83NpatSnyw91j+PDvnmSb7DHY1
ZMnNEY1wkUwcsi8h/dciwCcMttd/EWCN5TRO1PfPMFqebRZiTYpOLAEFcx4/6the
F9ZhjzQkYNl8V8mQnGVOOnb6QTAmm9p7y1+//JywFzE/T2DJAgMBAAGjezB5MAkG
A1UdEwQCMAAwLAYJYIZIAYb4QgENBB8WHU9wZW5TU0wgR2VuZXJhdGVkIENlcnRp
ZmljYXRlMB0GA1UdDgQWBBTdYhbSrYZV0Oz3X4FVwRJQTuU+BDAfBgNVHSMEGDAW
gBTTSsfDR+2ZzZbbXsLSIaVhYIx/BjANBgkqhkiG9w0BAQUFAAOCAQEAr6Etxzhz
X5YvW8BmX+211tUpbe2K2DJiOlM5e6E3FWhS+rXXKYJd/mLJB9kKihGck4OdogJZ
GwzXtrRRF+99ppA3hWQ5Ameeb+cel1IzigU6dUrzl3ZDjHIMiiqTRLiAOX2+Jg3P
+NtdAiwBd0vVro4c+omdY88eXDkGmafRvMPsGlQpixgPiAU3bWgUIlrXhAjXDCiP
4vzNPTd9ERBNjrCDlUG//0gg9Rez7fe4ddgwkwMfPM3aq937BkLTy81oMs+zo3Db
sxbzrI3vpiBYyx7QIOi8hclxJ2AFLuGHjgmFeAmEzX+0vduaXhdrZjUy/aDMexLj
P786FeQXNN41hQ==
-----END CERTIFICATE-----
