Certificate:
    Data:
        Version: 3 (0x2)
        Serial Number: 2 (0x2)
        Signature Algorithm: sha1WithRSAEncryption
        Issuer: C=SE, O=Example, OU=Example Certificate Authority, CN=Example Cluster Authority
        Validity
            Not Before: Jun 20 09:16:09 2017 GMT
            Not After : Dec 11 09:16:09 2022 GMT
        Subject: C=SE, O=Example, OU=Example Cluster, CN=Server 1
        Subject Public Key Info:
            Public Key Algorithm: rsaEncryption
            RSA Public Key: (2048 bit)
                Modulus (2048 bit):
                    00:c7:12:9f:dd:37:dd:df:e8:61:26:98:57:30:68:
                    eb:d0:6a:b4:da:73:af:96:d8:cc:46:1a:5f:9e:13:
                    6a:3c:7c:42:4e:ef:4b:1f:16:d2:9a:10:28:ed:88:
                    5d:ac:b9:85:89:14:30:13:f6:bc:3f:ea:73:47:72:
                    94:cb:df:1b:a9:84:ad:c1:e3:5f:9f:1b:94:f3:1c:
                    4e:b1:dd:bd:00:6a:3a:01:6e:62:80:01:48:05:d8:
                    c4:31:39:e2:63:04:81:79:81:e4:60:64:54:1e:19:
                    85:73:76:be:c5:dd:2d:da:bc:e1:5f:6a:3f:da:37:
                    91:6d:3c:24:51:74:08:e0:32:bd:cb:c0:fb:38:03:
                    48:d3:9b:45:da:9c:3c:08:2b:b7:23:8d:6c:b3:c9:
                    26:fc:81:59:22:d5:3d:9b:10:30:23:13:0f:15:ad:
                    8b:b7:6b:fc:77:df:c2:2d:f8:e5:df:66:f6:3c:98:
                    bb:da:bf:d7:93:d5:44:32:e1:3c:67:a5:a6:f7:44:
                    20:17:a7:f8:aa:cb:a7:a1:46:47:df:75:a2:fe:51:
                    87:35:82:2f:ee:2a:13:86:f3:fa:ec:b5:31:fd:04:
                    29:d1:6a:ea:95:d1:ed:ef:3c:d2:61:d6:9c:a2:d8:
                    5c:34:12:50:8f:a9:68:90:a5:0b:33:bb:88:0a:a7:
                    14:5b
                Exponent: 65537 (0x10001)
        X509v3 extensions:
            X509v3 Key Usage: critical
                Digital Signature, Key Encipherment
            X509v3 Basic Constraints: 
                CA:FALSE
            X509v3 Extended Key Usage: 
                TLS Web Server Authentication, TLS Web Client Authentication
            X509v3 Subject Key Identifier: 
                79:80:33:B8:96:DD:47:50:D0:18:4F:A2:E3:B9:19:B3:B1:89:79:AA
            X509v3 Authority Key Identifier: 
                keyid:DB:AE:9D:4D:E7:B8:84:A6:E8:E8:2D:1B:AD:73:AE:2C:21:11:E0:2C

            Authority Information Access: 
                CA Issuers - URI:http://example.com/ca/cluster.cer

            X509v3 CRL Distribution Points: 
                URI:http://example.com/ca/cluster.crl

    Signature Algorithm: sha1WithRSAEncryption
        1a:25:39:4f:9b:be:5e:6b:7e:c4:33:5d:63:97:c6:ed:d9:7b:
        b2:50:40:7b:12:7a:86:8b:59:16:93:59:7c:52:5b:2c:38:d6:
        47:d0:a0:12:d2:f2:08:59:d2:67:2b:14:59:ce:d0:a1:35:e3:
        b9:34:d9:b5:24:e6:aa:bd:f4:60:6e:ff:cb:78:85:24:15:2f:
        2b:4f:d1:b0:9a:30:a9:19:91:8f:b2:d6:3b:ae:b6:45:af:b7:
        5f:fa:5f:75:5a:a4:0b:4b:92:47:bb:9d:f3:7c:4c:a9:01:34:
        d0:58:56:2f:84:db:07:0e:d2:13:60:14:e0:29:da:82:1f:e3:
        7f:42:6c:f9:b2:fb:85:02:61:3b:8d:5c:d9:ba:bd:a5:3f:ab:
        8a:d6:47:b9:37:27:e9:09:70:63:7b:cf:fd:68:98:e9:03:cf:
        26:18:42:33:2a:76:ac:01:7b:77:65:a5:85:94:53:30:15:d5:
        fa:5c:0f:7a:ea:f8:59:af:e4:99:6c:73:3f:ff:e3:9a:6d:c8:
        6c:4a:98:bf:8b:af:4b:fe:3d:ed:87:81:d2:7c:40:42:09:11:
        7e:b8:12:12:31:c8:37:10:e0:82:a7:d7:3d:b9:3b:6e:53:d2:
        9a:52:39:41:ab:97:a1:30:dc:eb:94:4a:7d:69:92:f3:70:ca:
        2a:10:51:5f
-----BEGIN CERTIFICATE-----
MIIEIzCCAwugAwIBAgIBAjANBgkqhkiG9w0BAQUFADBrMQswCQYDVQQGEwJTRTEQ
MA4GA1UECgwHRXhhbXBsZTEmMCQGA1UECwwdRXhhbXBsZSBDZXJ0aWZpY2F0ZSBB
dXRob3JpdHkxIjAgBgNVBAMMGUV4YW1wbGUgQ2x1c3RlciBBdXRob3JpdHkwHhcN
MTcwNjIwMDkxNjA5WhcNMjIxMjExMDkxNjA5WjBMMQswCQYDVQQGEwJTRTEQMA4G
A1UECgwHRXhhbXBsZTEYMBYGA1UECwwPRXhhbXBsZSBDbHVzdGVyMREwDwYDVQQD
DAhTZXJ2ZXIgMTCCASIwDQYJKoZIhvcNAQEBBQADggEPADCCAQoCggEBAMcSn903
3d/oYSaYVzBo69BqtNpzr5bYzEYaX54Tajx8Qk7vSx8W0poQKO2IXay5hYkUMBP2
vD/qc0dylMvfG6mErcHjX58blPMcTrHdvQBqOgFuYoABSAXYxDE54mMEgXmB5GBk
VB4ZhXN2vsXdLdq84V9qP9o3kW08JFF0COAyvcvA+zgDSNObRdqcPAgrtyONbLPJ
JvyBWSLVPZsQMCMTDxWti7dr/Hffwi345d9m9jyYu9q/15PVRDLhPGelpvdEIBen
+KrLp6FGR991ov5RhzWCL+4qE4bz+uy1Mf0EKdFq6pXR7e880mHWnKLYXDQSUI+p
aJClCzO7iAqnFFsCAwEAAaOB8DCB7TAOBgNVHQ8BAf8EBAMCBaAwCQYDVR0TBAIw
ADAdBgNVHSUEFjAUBggrBgEFBQcDAQYIKwYBBQUHAwIwHQYDVR0OBBYEFHmAM7iW
3UdQ0BhPouO5GbOxiXmqMB8GA1UdIwQYMBaAFNuunU3nuISm6OgtG61zriwhEeAs
MD0GCCsGAQUFBwEBBDEwLzAtBggrBgEFBQcwAoYhaHR0cDovL2V4YW1wbGUuY29t
L2NhL2NsdXN0ZXIuY2VyMDIGA1UdHwQrMCkwJ6AloCOGIWh0dHA6Ly9leGFtcGxl
LmNvbS9jYS9jbHVzdGVyLmNybDANBgkqhkiG9w0BAQUFAAOCAQEAGiU5T5u+Xmt+
xDNdY5fG7dl7slBAexJ6hotZFpNZfFJbLDjWR9CgEtLyCFnSZysUWc7QoTXjuTTZ
tSTmqr30YG7/y3iFJBUvK0/RsJowqRmRj7LWO662Ra+3X/pfdVqkC0uSR7ud83xM
qQE00FhWL4TbBw7SE2AU4Cnagh/jf0Js+bL7hQJhO41c2bq9pT+ritZHuTcn6Qlw
Y3vP/WiY6QPPJhhCMyp2rAF7d2WlhZRTMBXV+lwPeur4Wa/kmWxzP//jmm3IbEqY
v4uvS/497YeB0nxAQgkRfrgSEjHINxDggqfXPbk7blPSmlI5QauXoTDc65RKfWmS
83DKKhBRXw==
-----END CERTIFICATE-----
