Certificate:
    Data:
        Version: 3 (0x2)
        Serial Number: 1 (0x1)
        Signature Algorithm: sha1WithRSAEncryption
        Issuer: C=SE, O=Example, OU=Example Certificate Authority, CN=Example Cluster Authority
        Validity
            Not Before: Jan  9 14:58:44 2024 GMT
            Not After : Jul  1 14:58:44 2029 GMT
        Subject: C=SE, O=Example, OU=Example Cluster, CN=Server 0
        Subject Public Key Info:
            Public Key Algorithm: rsaEncryption
                Public-Key: (2048 bit)
                Modulus:
                    00:c5:6d:15:0c:ba:c5:04:75:41:15:4c:29:1d:9f:
                    23:cc:a7:6c:75:d2:e4:1c:c9:71:16:e6:48:88:cd:
                    4e:41:3e:57:7b:29:8b:89:7b:e3:1c:e7:b6:50:5a:
                    42:92:7a:0b:7a:0b:9d:c6:7d:37:6b:ee:35:4f:e3:
                    22:5e:a0:85:4c:fe:28:4d:5a:66:a7:a0:13:b8:70:
                    46:57:7c:76:ac:f4:8f:f0:43:9c:e2:df:bb:9c:43:
                    64:64:65:1e:19:bd:6c:ea:5b:df:d8:38:94:40:69:
                    dc:74:81:41:32:43:d4:d9:40:60:90:08:c3:f0:0b:
                    b4:9d:41:2e:67:18:c6:ba:72:e0:6d:93:c5:ea:9d:
                    63:98:c7:f9:35:01:71:0d:79:5e:6b:2e:37:9d:64:
                    de:17:26:98:d9:be:a5:82:7c:48:0e:65:11:9c:1a:
                    e6:81:4c:44:4c:de:f8:95:74:ea:cc:a4:4b:47:c7:
                    fe:9b:8b:82:ca:90:da:8a:94:53:8f:d1:98:be:94:
                    db:53:75:0e:57:53:05:15:23:1b:85:ce:13:b9:85:
                    f5:88:ea:dd:f3:0f:1c:17:24:59:7f:cf:79:33:ed:
                    c0:91:6c:a2:14:c3:be:92:e7:96:dd:f5:57:e9:10:
                    8a:34:62:aa:b0:f0:c3:ea:e6:66:59:e5:b0:a7:29:
                    91:67
                Exponent: 65537 (0x10001)
        X509v3 extensions:
            X509v3 Key Usage: critical
                Digital Signature, Key Encipherment
            X509v3 Basic Constraints: 
                CA:FALSE
            X509v3 Extended Key Usage: 
                TLS Web Server Authentication, TLS Web Client Authentication
            X509v3 Subject Key Identifier: 
                CB:13:A3:75:99:EC:33:AC:19:77:8D:BA:DD:87:E4:DB:3C:9D:C5:FB
            X509v3 Authority Key Identifier: 
                FE:6D:67:B0:11:E4:BB:CF:70:E0:75:A6:1C:21:33:83:15:32:5B:7B
            Authority Information Access: 
                CA Issuers - URI:http://example.com/ca/cluster.cer
            X509v3 CRL Distribution Points: 
                Full Name:
                  URI:http://example.com/ca/cluster.crl
            X509v3 Subject Alternative Name: 
                DNS:localhost
    Signature Algorithm: sha1WithRSAEncryption
    Signature Value:
        29:63:b1:8d:a3:55:56:03:0b:08:9a:10:46:04:6b:8c:92:d9:
        b6:e9:80:11:4f:b2:5a:e0:c2:6d:b1:01:e1:54:ee:0a:44:e3:
        79:6d:b4:50:94:4b:ec:2d:47:fd:51:87:57:7b:ca:f6:5b:cc:
        2f:f2:88:f2:23:33:30:e6:0c:d6:63:a0:b7:30:76:ee:40:6e:
        f1:85:b3:2f:d1:57:5d:20:f5:fe:43:ba:03:4b:07:3b:31:d6:
        c6:90:31:80:b1:6a:0b:ef:26:f0:8b:ad:92:d8:05:63:d3:e9:
        0f:57:dc:2b:4d:9c:04:7d:47:ac:4a:dc:05:79:ca:1f:3d:3e:
        68:9d:b8:4c:45:0e:15:33:23:b8:82:5a:0e:9a:27:87:6a:b5:
        33:3f:48:3c:4b:e3:a2:83:1d:ae:ef:fe:72:f3:44:c1:fa:35:
        44:d5:f5:36:e7:b6:c8:b4:ac:08:80:47:1d:84:86:67:fc:27:
        d1:87:e0:a7:d6:6a:46:82:fe:9b:35:6d:57:ef:16:82:5a:f0:
        76:35:04:4e:e0:35:cc:ba:46:07:dd:0e:81:60:d0:67:8d:fb:
        a4:43:3a:45:32:85:6c:6a:1e:4b:05:c9:65:1a:28:44:2a:23:
        72:4a:b6:51:8b:39:82:99:64:29:65:db:8b:b0:ae:9a:2d:9f:
        bb:82:e3:63
-----BEGIN CERTIFICATE-----
MIIEOzCCAyOgAwIBAgIBATANBgkqhkiG9w0BAQUFADBrMQswCQYDVQQGEwJTRTEQ
MA4GA1UECgwHRXhhbXBsZTEmMCQGA1UECwwdRXhhbXBsZSBDZXJ0aWZpY2F0ZSBB
dXRob3JpdHkxIjAgBgNVBAMMGUV4YW1wbGUgQ2x1c3RlciBBdXRob3JpdHkwHhcN
MjQwMTA5MTQ1ODQ0WhcNMjkwNzAxMTQ1ODQ0WjBMMQswCQYDVQQGEwJTRTEQMA4G
A1UECgwHRXhhbXBsZTEYMBYGA1UECwwPRXhhbXBsZSBDbHVzdGVyMREwDwYDVQQD
DAhTZXJ2ZXIgMDCCASIwDQYJKoZIhvcNAQEBBQADggEPADCCAQoCggEBAMVtFQy6
xQR1QRVMKR2fI8ynbHXS5BzJcRbmSIjNTkE+V3spi4l74xzntlBaQpJ6C3oLncZ9
N2vuNU/jIl6ghUz+KE1aZqegE7hwRld8dqz0j/BDnOLfu5xDZGRlHhm9bOpb39g4
lEBp3HSBQTJD1NlAYJAIw/ALtJ1BLmcYxrpy4G2TxeqdY5jH+TUBcQ15XmsuN51k
3hcmmNm+pYJ8SA5lEZwa5oFMREze+JV06sykS0fH/puLgsqQ2oqUU4/RmL6U21N1
DldTBRUjG4XOE7mF9Yjq3fMPHBckWX/PeTPtwJFsohTDvpLnlt31V+kQijRiqrDw
w+rmZlnlsKcpkWcCAwEAAaOCAQcwggEDMA4GA1UdDwEB/wQEAwIFoDAJBgNVHRME
AjAAMB0GA1UdJQQWMBQGCCsGAQUFBwMBBggrBgEFBQcDAjAdBgNVHQ4EFgQUyxOj
dZnsM6wZd4263Yfk2zydxfswHwYDVR0jBBgwFoAU/m1nsBHku89w4HWmHCEzgxUy
W3swPQYIKwYBBQUHAQEEMTAvMC0GCCsGAQUFBzAChiFodHRwOi8vZXhhbXBsZS5j
b20vY2EvY2x1c3Rlci5jZXIwMgYDVR0fBCswKTAnoCWgI4YhaHR0cDovL2V4YW1w
bGUuY29tL2NhL2NsdXN0ZXIuY3JsMBQGA1UdEQQNMAuCCWxvY2FsaG9zdDANBgkq
hkiG9w0BAQUFAAOCAQEAKWOxjaNVVgMLCJoQRgRrjJLZtumAEU+yWuDCbbEB4VTu
CkTjeW20UJRL7C1H/VGHV3vK9lvML/KI8iMzMOYM1mOgtzB27kBu8YWzL9FXXSD1
/kO6A0sHOzHWxpAxgLFqC+8m8IutktgFY9PpD1fcK02cBH1HrErcBXnKHz0+aJ24
TEUOFTMjuIJaDponh2q1Mz9IPEvjooMdru/+cvNEwfo1RNX1Nue2yLSsCIBHHYSG
Z/wn0Yfgp9ZqRoL+mzVtV+8WglrwdjUETuA1zLpGB90OgWDQZ437pEM6RTKFbGoe
SwXJZRooRCojckq2UYs5gplkKWXbi7Cumi2fu4LjYw==
-----END CERTIFICATE-----
