Certificate:
    Data:
        Version: 3 (0x2)
        Serial Number: 1 (0x1)
    Signature Algorithm: sha1WithRSAEncryption
        Issuer: C=SE, O=Example, OU=Example Certificate Authority, CN=Example Cluster Authority
        Validity
            Not Before: Jul  9 14:29:06 2018 GMT
            Not After : Dec 30 14:29:06 2023 GMT
        Subject: C=SE, O=Example, OU=Example Cluster, CN=Server 0
        Subject Public Key Info:
            Public Key Algorithm: rsaEncryption
                Public-Key: (2048 bit)
                Modulus:
                    00:af:ba:88:53:b9:22:86:47:8a:d8:1f:87:8d:99:
                    68:33:6e:c7:14:b1:a9:cd:2f:ed:ae:1c:a6:03:ac:
                    56:d8:73:5f:1f:53:6d:3a:b5:4e:55:3d:48:23:e6:
                    bd:46:4e:51:ee:e2:82:91:bb:9f:db:0f:a6:f2:43:
                    c8:f5:e4:55:58:eb:02:fc:6c:ec:6f:25:c0:2e:10:
                    7e:b3:3c:99:40:b9:bf:a3:4f:a6:09:78:55:d4:6a:
                    52:f5:74:bc:e1:36:76:91:f0:2a:3d:3a:b7:6f:99:
                    e6:e5:10:1d:36:17:e2:9b:dc:cd:a1:3e:06:d0:fd:
                    58:ad:ae:91:00:1b:ee:07:41:61:3e:12:84:3a:dd:
                    1e:ff:bd:ce:3a:ad:c4:09:80:4a:b7:31:36:c3:43:
                    73:e5:34:29:a1:af:e5:9e:49:d4:10:30:77:d1:7a:
                    6e:a3:a3:3c:ed:3f:b8:3e:a9:71:49:06:28:be:64:
                    75:68:8f:1f:e7:b3:35:2d:fa:6b:ff:2d:a6:f3:41:
                    24:ce:40:7b:fc:93:30:39:58:cc:40:ec:d7:ca:42:
                    78:3a:97:b2:ac:94:ce:7f:e5:ff:f2:a1:87:f5:52:
                    f0:95:bd:08:40:f0:61:f1:90:30:2e:02:c1:73:b5:
                    ab:39:d8:3f:1d:83:c3:76:cc:d7:9a:b7:5e:29:5f:
                    9a:31
                Exponent: 65537 (0x10001)
        X509v3 extensions:
            X509v3 Key Usage: critical
                Digital Signature, Key Encipherment
            X509v3 Basic Constraints: 
                CA:FALSE
            X509v3 Extended Key Usage: 
                TLS Web Server Authentication, TLS Web Client Authentication
            X509v3 Subject Key Identifier: 
                5A:F3:7D:05:19:86:D5:08:27:0F:F8:44:12:F8:67:02:6E:09:8B:86
            X509v3 Authority Key Identifier: 
                keyid:BD:CD:52:9A:5A:3D:8A:10:85:DF:95:56:63:EE:2B:3A:74:74:E4:33

            Authority Information Access: 
                CA Issuers - URI:http://example.com/ca/cluster.cer

            X509v3 CRL Distribution Points: 

                Full Name:
                  URI:http://example.com/ca/cluster.crl

            X509v3 Subject Alternative Name: 
                DNS:localhost
    Signature Algorithm: sha1WithRSAEncryption
         6a:63:d7:32:ef:dc:48:d1:f7:4e:42:87:24:2e:ec:84:14:84:
         eb:b6:b7:17:ef:a6:6c:f7:fc:d1:9d:08:34:51:90:00:f5:86:
         fc:d1:38:4a:b4:32:e3:e4:16:40:47:f4:d5:eb:48:e3:fa:10:
         a7:da:25:5b:32:3f:33:e3:0e:45:e9:c6:45:49:53:9f:0d:99:
         86:77:60:14:9a:4e:8b:01:c8:1c:32:be:75:0e:e3:c4:c3:a4:
         9e:cc:d7:96:ad:01:22:a4:06:6f:11:22:a9:4f:be:45:a2:a0:
         45:94:b6:d3:b8:5a:96:93:5d:e1:a9:99:44:f7:00:5a:ed:3c:
         74:a7:11:92:42:9a:d1:09:a9:26:35:79:36:fb:16:a5:31:fe:
         44:99:56:10:ab:16:fb:e4:20:a9:59:e7:af:73:7c:9a:0b:6d:
         e7:b6:1c:9a:fb:52:10:89:9a:2b:79:0d:49:3c:c2:2c:bf:51:
         e2:76:2f:d1:9f:da:45:e1:35:58:11:c9:c9:ae:6f:34:e6:79:
         99:5b:34:d9:c7:67:6a:71:ce:55:89:33:09:a3:0f:12:6c:94:
         07:54:66:1a:40:49:9f:ff:97:8a:85:aa:d9:94:d0:bf:cd:50:
         78:15:c3:d1:49:8c:43:1b:3f:6a:8e:94:47:95:20:1b:72:b7:
         95:ed:c5:ef
-----BEGIN CERTIFICATE-----
MIIEOzCCAyOgAwIBAgIBATANBgkqhkiG9w0BAQUFADBrMQswCQYDVQQGEwJTRTEQ
MA4GA1UECgwHRXhhbXBsZTEmMCQGA1UECwwdRXhhbXBsZSBDZXJ0aWZpY2F0ZSBB
dXRob3JpdHkxIjAgBgNVBAMMGUV4YW1wbGUgQ2x1c3RlciBBdXRob3JpdHkwHhcN
MTgwNzA5MTQyOTA2WhcNMjMxMjMwMTQyOTA2WjBMMQswCQYDVQQGEwJTRTEQMA4G
A1UECgwHRXhhbXBsZTEYMBYGA1UECwwPRXhhbXBsZSBDbHVzdGVyMREwDwYDVQQD
DAhTZXJ2ZXIgMDCCASIwDQYJKoZIhvcNAQEBBQADggEPADCCAQoCggEBAK+6iFO5
IoZHitgfh42ZaDNuxxSxqc0v7a4cpgOsVthzXx9TbTq1TlU9SCPmvUZOUe7igpG7
n9sPpvJDyPXkVVjrAvxs7G8lwC4QfrM8mUC5v6NPpgl4VdRqUvV0vOE2dpHwKj06
t2+Z5uUQHTYX4pvczaE+BtD9WK2ukQAb7gdBYT4ShDrdHv+9zjqtxAmASrcxNsND
c+U0KaGv5Z5J1BAwd9F6bqOjPO0/uD6pcUkGKL5kdWiPH+ezNS36a/8tpvNBJM5A
e/yTMDlYzEDs18pCeDqXsqyUzn/l//Khh/VS8JW9CEDwYfGQMC4CwXO1qznYPx2D
w3bM15q3XilfmjECAwEAAaOCAQcwggEDMA4GA1UdDwEB/wQEAwIFoDAJBgNVHRME
AjAAMB0GA1UdJQQWMBQGCCsGAQUFBwMBBggrBgEFBQcDAjAdBgNVHQ4EFgQUWvN9
BRmG1QgnD/hEEvhnAm4Ji4YwHwYDVR0jBBgwFoAUvc1Smlo9ihCF35VWY+4rOnR0
5DMwPQYIKwYBBQUHAQEEMTAvMC0GCCsGAQUFBzAChiFodHRwOi8vZXhhbXBsZS5j
b20vY2EvY2x1c3Rlci5jZXIwMgYDVR0fBCswKTAnoCWgI4YhaHR0cDovL2V4YW1w
bGUuY29tL2NhL2NsdXN0ZXIuY3JsMBQGA1UdEQQNMAuCCWxvY2FsaG9zdDANBgkq
hkiG9w0BAQUFAAOCAQEAamPXMu/cSNH3TkKHJC7shBSE67a3F++mbPf80Z0INFGQ
APWG/NE4SrQy4+QWQEf01etI4/oQp9olWzI/M+MORenGRUlTnw2ZhndgFJpOiwHI
HDK+dQ7jxMOknszXlq0BIqQGbxEiqU++RaKgRZS207halpNd4amZRPcAWu08dKcR
kkKa0QmpJjV5NvsWpTH+RJlWEKsW++QgqVnnr3N8mgtt57YcmvtSEImaK3kNSTzC
LL9R4nYv0Z/aReE1WBHJya5vNOZ5mVs02cdnanHOVYkzCaMPEmyUB1RmGkBJn/+X
ioWq2ZTQv81QeBXD0UmMQxs/ao6UR5UgG3K3le3F7w==
-----END CERTIFICATE-----
