Certificate:
    Data:
        Version: 3 (0x2)
        Serial Number: 1 (0x1)
        Signature Algorithm: sha256WithRSAEncryption
        Issuer: C=SE, O=Example, OU=Example Certificate Authority, CN=Example Cluster Authority
        Validity
            Not Before: Nov 26 11:09:46 2021 GMT
            Not After : May 19 11:09:46 2027 GMT
        Subject: C=SE, O=Example, OU=Example Cluster, CN=Server 0
        Subject Public Key Info:
            Public Key Algorithm: rsaEncryption
                RSA Public-Key: (2048 bit)
                Modulus:
                    00:bf:30:78:24:d7:9c:f5:a0:41:e4:77:aa:11:e1:
                    97:7c:e2:a9:3e:2a:d3:9e:b7:53:e7:bf:9d:47:9f:
                    4e:3f:1f:27:a8:a9:a2:26:69:a0:17:12:89:83:63:
                    e4:44:8d:50:c7:d0:c4:3d:6b:4a:2a:11:52:f2:be:
                    bb:76:12:95:f7:f7:29:2f:9f:4a:bd:74:de:18:ec:
                    1c:fa:f7:62:21:c4:30:3f:ec:ad:3f:8e:59:51:d9:
                    14:38:f9:8a:e6:ec:b7:95:9d:c8:94:a9:4f:c4:f5:
                    e2:18:27:d9:b6:5e:b2:c8:91:64:75:a0:a5:4a:ea:
                    df:9c:1c:c6:74:bd:47:ac:6a:40:29:76:14:31:1e:
                    29:4c:96:21:ed:eb:da:a4:bf:10:47:2f:04:54:3a:
                    de:a7:2b:7c:84:a6:7d:94:5a:27:b9:79:86:16:bb:
                    d6:f4:42:43:7d:a0:e1:58:1a:41:6e:c9:84:e9:59:
                    15:ff:c9:25:d6:68:1f:0f:3f:0d:6d:ad:5d:16:67:
                    5f:ae:46:82:46:ae:02:60:f0:ce:2c:a3:e5:38:60:
                    1c:45:43:34:ba:e8:f8:8d:6a:54:b0:38:c6:ce:a3:
                    eb:0b:cd:64:a7:9f:c3:6c:88:09:86:0b:3f:36:0f:
                    13:a7:6b:3b:36:48:ca:44:90:d4:5d:eb:f3:b5:b0:
                    df:f5
                Exponent: 65537 (0x10001)
        X509v3 extensions:
            X509v3 Key Usage: critical
                Digital Signature, Key Encipherment
            X509v3 Basic Constraints: 
                CA:FALSE
            X509v3 Extended Key Usage: 
                TLS Web Server Authentication, TLS Web Client Authentication
            X509v3 Subject Key Identifier: 
                40:DD:29:BA:74:C9:E8:C8:22:3E:84:BA:41:E1:E4:93:19:B1:50:43
            X509v3 Authority Key Identifier: 
                keyid:83:BA:16:EC:04:23:A7:40:34:8B:A0:3A:35:ED:CE:B6:E8:95:8E:2D

            Authority Information Access: 
                CA Issuers - URI:http://example.com/ca/cluster.cer

            X509v3 CRL Distribution Points: 

                Full Name:
                  URI:http://example.com/ca/cluster.crl

            X509v3 Subject Alternative Name: 
                DNS:localhost
    Signature Algorithm: sha256WithRSAEncryption
         ab:ee:9a:bb:ad:30:26:ab:77:d0:4d:79:d7:d0:49:61:76:49:
         fd:8e:3d:be:60:2e:71:f7:34:bb:6b:0c:e1:33:85:da:c0:aa:
         d9:78:e2:56:fb:ad:85:73:00:a3:73:87:e4:d3:6a:21:26:7e:
         a4:3e:2f:2c:51:f8:93:e3:7c:ad:25:fa:ba:55:db:c9:e2:0f:
         42:2c:c4:cb:26:53:5c:6b:d2:93:27:be:31:24:cc:1c:28:4e:
         af:da:be:6d:b5:61:aa:f8:ee:0f:a0:af:29:87:c1:d5:cc:24:
         17:6d:83:a5:38:31:4d:45:ac:b2:85:d3:5f:c4:bc:86:ea:41:
         00:01:34:ab:d6:11:8f:71:2f:31:c3:11:67:83:ba:7b:77:2f:
         d3:fe:e2:bc:00:73:8b:4d:fc:4c:d3:74:3b:5e:ec:36:ca:94:
         74:6e:83:95:6d:26:88:d2:e2:f4:e6:93:f2:b5:a7:8e:4e:3f:
         92:3c:c0:ea:96:35:38:d2:64:fd:6d:91:e8:79:f3:e0:a2:d7:
         81:0c:34:3f:4e:6e:12:d5:0d:c3:4d:42:54:a9:1b:65:9b:5d:
         5e:76:0b:d1:a6:de:fb:2a:ed:27:fd:9f:34:30:e5:9d:5b:94:
         a5:95:d2:66:03:b2:61:4e:0a:26:7e:6d:42:59:91:31:5a:ae:
         13:89:32:02
-----BEGIN CERTIFICATE-----
MIIEOzCCAyOgAwIBAgIBATANBgkqhkiG9w0BAQsFADBrMQswCQYDVQQGEwJTRTEQ
MA4GA1UECgwHRXhhbXBsZTEmMCQGA1UECwwdRXhhbXBsZSBDZXJ0aWZpY2F0ZSBB
dXRob3JpdHkxIjAgBgNVBAMMGUV4YW1wbGUgQ2x1c3RlciBBdXRob3JpdHkwHhcN
MjExMTI2MTEwOTQ2WhcNMjcwNTE5MTEwOTQ2WjBMMQswCQYDVQQGEwJTRTEQMA4G
A1UECgwHRXhhbXBsZTEYMBYGA1UECwwPRXhhbXBsZSBDbHVzdGVyMREwDwYDVQQD
DAhTZXJ2ZXIgMDCCASIwDQYJKoZIhvcNAQEBBQADggEPADCCAQoCggEBAL8weCTX
nPWgQeR3qhHhl3ziqT4q0563U+e/nUefTj8fJ6ipoiZpoBcSiYNj5ESNUMfQxD1r
SioRUvK+u3YSlff3KS+fSr103hjsHPr3YiHEMD/srT+OWVHZFDj5iubst5WdyJSp
T8T14hgn2bZessiRZHWgpUrq35wcxnS9R6xqQCl2FDEeKUyWIe3r2qS/EEcvBFQ6
3qcrfISmfZRaJ7l5hha71vRCQ32g4VgaQW7JhOlZFf/JJdZoHw8/DW2tXRZnX65G
gkauAmDwziyj5ThgHEVDNLro+I1qVLA4xs6j6wvNZKefw2yICYYLPzYPE6drOzZI
ykSQ1F3r87Ww3/UCAwEAAaOCAQcwggEDMA4GA1UdDwEB/wQEAwIFoDAJBgNVHRME
AjAAMB0GA1UdJQQWMBQGCCsGAQUFBwMBBggrBgEFBQcDAjAdBgNVHQ4EFgQUQN0p
unTJ6MgiPoS6QeHkkxmxUEMwHwYDVR0jBBgwFoAUg7oW7AQjp0A0i6A6Ne3OtuiV
ji0wPQYIKwYBBQUHAQEEMTAvMC0GCCsGAQUFBzAChiFodHRwOi8vZXhhbXBsZS5j
b20vY2EvY2x1c3Rlci5jZXIwMgYDVR0fBCswKTAnoCWgI4YhaHR0cDovL2V4YW1w
bGUuY29tL2NhL2NsdXN0ZXIuY3JsMBQGA1UdEQQNMAuCCWxvY2FsaG9zdDANBgkq
hkiG9w0BAQsFAAOCAQEAq+6au60wJqt30E1519BJYXZJ/Y49vmAucfc0u2sM4TOF
2sCq2XjiVvuthXMAo3OH5NNqISZ+pD4vLFH4k+N8rSX6ulXbyeIPQizEyyZTXGvS
kye+MSTMHChOr9q+bbVhqvjuD6CvKYfB1cwkF22DpTgxTUWssoXTX8S8hupBAAE0
q9YRj3EvMcMRZ4O6e3cv0/7ivABzi038TNN0O17sNsqUdG6DlW0miNLi9OaT8rWn
jk4/kjzA6pY1ONJk/W2R6Hnz4KLXgQw0P05uEtUNw01CVKkbZZtdXnYL0abe+yrt
J/2fNDDlnVuUpZXSZgOyYU4KJn5tQlmRMVquE4kyAg==
-----END CERTIFICATE-----
