Certificate:
    Data:
        Version: 3 (0x2)
        Serial Number: 1 (0x1)
    Signature Algorithm: sha1WithRSAEncryption
        Issuer: C=SE, O=Example, OU=Example Certificate Authority, CN=Example Cluster Authority
        Validity
            Not Before: Mar 13 11:42:59 2018 GMT
            Not After : Sep  3 11:42:59 2023 GMT
        Subject: C=SE, O=Example, OU=Example Cluster, CN=Server 0
        Subject Public Key Info:
            Public Key Algorithm: rsaEncryption
                Public-Key: (2048 bit)
                Modulus:
                    00:ac:69:26:6c:aa:35:7a:ce:25:4e:bb:67:ee:4b:
                    29:b0:a9:f2:01:d3:31:f7:16:7a:bb:ee:05:2b:16:
                    c1:91:c6:2e:83:8a:8f:2a:84:f9:30:80:86:d0:be:
                    be:77:6c:ae:fc:29:13:08:6e:8c:25:d1:53:3b:16:
                    61:06:d9:e0:25:e4:44:fa:e3:b7:a2:6c:56:0b:0d:
                    4b:3f:f4:f5:d4:31:4d:ac:84:90:c1:2c:e7:f5:dd:
                    47:67:2c:c3:3c:49:b1:df:68:e3:69:9c:d9:d6:c1:
                    86:c9:53:97:48:be:85:40:18:04:d5:37:f9:8d:68:
                    70:aa:ab:14:20:ec:37:cd:59:9d:97:0e:37:54:5e:
                    8c:91:58:12:3d:15:22:a4:88:e5:83:b7:82:7f:85:
                    fd:a1:59:c1:9b:a5:a8:82:85:03:78:60:18:98:25:
                    d0:3c:f8:5e:eb:01:44:c0:d4:59:5a:cd:bd:80:a5:
                    90:5d:14:05:ef:40:4b:aa:6f:dd:10:c7:23:5a:c3:
                    12:04:b8:b0:59:6b:7d:67:10:f3:5e:a6:89:6e:5c:
                    8d:2a:21:72:2c:27:fe:7b:7a:a9:aa:b9:a6:b9:72:
                    8e:74:54:b0:23:51:12:d7:15:ff:fc:40:db:ea:7a:
                    99:ba:c5:7c:28:d1:f5:e1:69:28:43:eb:0f:6b:70:
                    7f:bf
                Exponent: 65537 (0x10001)
        X509v3 extensions:
            X509v3 Key Usage: critical
                Digital Signature, Key Encipherment
            X509v3 Basic Constraints: 
                CA:FALSE
            X509v3 Extended Key Usage: 
                TLS Web Server Authentication, TLS Web Client Authentication
            X509v3 Subject Key Identifier: 
                7B:D2:18:46:9A:2E:5D:35:19:2C:A3:25:2E:04:58:36:DC:6E:4E:4E
            X509v3 Authority Key Identifier: 
                keyid:D0:17:85:14:AC:81:1D:29:A4:75:73:01:87:5C:40:D2:84:68:3D:4F

            Authority Information Access: 
                CA Issuers - URI:http://example.com/ca/cluster.cer

            X509v3 CRL Distribution Points: 

                Full Name:
                  URI:http://example.com/ca/cluster.crl

    Signature Algorithm: sha1WithRSAEncryption
         49:4e:fc:fe:b0:f8:0f:42:f6:5a:ed:de:fa:ff:75:95:fb:07:
         8c:5a:fa:70:a2:3c:c2:c4:42:23:5f:7d:d7:d3:01:03:84:b6:
         2a:ad:59:88:87:77:b0:2a:32:32:21:ef:de:66:18:d0:22:24:
         62:d0:f6:6e:4b:4c:8d:bd:04:01:79:fe:85:38:49:7d:fb:31:
         0d:40:65:9b:6f:97:77:1a:b2:b4:0e:70:1d:71:b8:24:8c:ee:
         2a:2d:95:d3:e1:2e:67:b7:44:11:2f:c8:11:db:27:47:53:d2:
         b3:fc:0d:69:e9:a8:d8:6e:62:b7:38:9a:14:55:9a:21:f8:84:
         b4:3c:df:00:aa:e1:34:23:34:f4:5c:c6:d8:db:d3:03:7c:72:
         e6:cb:21:7b:63:c4:d9:66:40:96:11:3c:d6:66:64:ae:a4:4e:
         99:98:73:95:89:4e:5a:37:43:77:60:09:09:ec:80:f7:8c:a3:
         1e:b4:4a:cc:9f:3e:2e:4e:61:94:12:f1:b8:9f:f0:73:be:92:
         a0:42:0c:53:be:a1:5d:fc:c5:ad:8f:f4:31:f1:f0:52:7a:22:
         50:fb:88:4f:6e:ea:b6:23:4a:f7:e0:41:3b:26:d1:65:ee:21:
         2f:80:b5:60:0e:21:fd:e4:5c:b3:2d:28:3a:73:d0:d1:96:18:
         4b:1c:b3:70
-----BEGIN CERTIFICATE-----
MIIEIzCCAwugAwIBAgIBATANBgkqhkiG9w0BAQUFADBrMQswCQYDVQQGEwJTRTEQ
MA4GA1UECgwHRXhhbXBsZTEmMCQGA1UECwwdRXhhbXBsZSBDZXJ0aWZpY2F0ZSBB
dXRob3JpdHkxIjAgBgNVBAMMGUV4YW1wbGUgQ2x1c3RlciBBdXRob3JpdHkwHhcN
MTgwMzEzMTE0MjU5WhcNMjMwOTAzMTE0MjU5WjBMMQswCQYDVQQGEwJTRTEQMA4G
A1UECgwHRXhhbXBsZTEYMBYGA1UECwwPRXhhbXBsZSBDbHVzdGVyMREwDwYDVQQD
DAhTZXJ2ZXIgMDCCASIwDQYJKoZIhvcNAQEBBQADggEPADCCAQoCggEBAKxpJmyq
NXrOJU67Z+5LKbCp8gHTMfcWervuBSsWwZHGLoOKjyqE+TCAhtC+vndsrvwpEwhu
jCXRUzsWYQbZ4CXkRPrjt6JsVgsNSz/09dQxTayEkMEs5/XdR2cswzxJsd9o42mc
2dbBhslTl0i+hUAYBNU3+Y1ocKqrFCDsN81ZnZcON1RejJFYEj0VIqSI5YO3gn+F
/aFZwZulqIKFA3hgGJgl0Dz4XusBRMDUWVrNvYClkF0UBe9AS6pv3RDHI1rDEgS4
sFlrfWcQ816miW5cjSohciwn/nt6qaq5prlyjnRUsCNREtcV//xA2+p6mbrFfCjR
9eFpKEPrD2twf78CAwEAAaOB8DCB7TAOBgNVHQ8BAf8EBAMCBaAwCQYDVR0TBAIw
ADAdBgNVHSUEFjAUBggrBgEFBQcDAQYIKwYBBQUHAwIwHQYDVR0OBBYEFHvSGEaa
Ll01GSyjJS4EWDbcbk5OMB8GA1UdIwQYMBaAFNAXhRSsgR0ppHVzAYdcQNKEaD1P
MD0GCCsGAQUFBwEBBDEwLzAtBggrBgEFBQcwAoYhaHR0cDovL2V4YW1wbGUuY29t
L2NhL2NsdXN0ZXIuY2VyMDIGA1UdHwQrMCkwJ6AloCOGIWh0dHA6Ly9leGFtcGxl
LmNvbS9jYS9jbHVzdGVyLmNybDANBgkqhkiG9w0BAQUFAAOCAQEASU78/rD4D0L2
Wu3e+v91lfsHjFr6cKI8wsRCI19919MBA4S2Kq1ZiId3sCoyMiHv3mYY0CIkYtD2
bktMjb0EAXn+hThJffsxDUBlm2+XdxqytA5wHXG4JIzuKi2V0+EuZ7dEES/IEdsn
R1PSs/wNaemo2G5itziaFFWaIfiEtDzfAKrhNCM09FzG2NvTA3xy5sshe2PE2WZA
lhE81mZkrqROmZhzlYlOWjdDd2AJCeyA94yjHrRKzJ8+Lk5hlBLxuJ/wc76SoEIM
U76hXfzFrY/0MfHwUnoiUPuIT27qtiNK9+BBOybRZe4hL4C1YA4h/eRcsy0oOnPQ
0ZYYSxyzcA==
-----END CERTIFICATE-----
