Certificate:
    Data:
        Version: 3 (0x2)
        Serial Number: 2 (0x2)
        Signature Algorithm: sha1WithRSAEncryption
        Issuer: C=SE, O=Example, OU=Example Certificate Authority, CN=Example Cluster Authority
        Validity
            Not Before: Jan  9 14:58:45 2024 GMT
            Not After : Jul  1 14:58:45 2029 GMT
        Subject: C=SE, O=Example, OU=Example Cluster, CN=Server 1
        Subject Public Key Info:
            Public Key Algorithm: rsaEncryption
                Public-Key: (2048 bit)
                Modulus:
                    00:97:42:ea:a3:2e:b0:0c:e1:b2:29:d8:fd:e3:51:
                    15:17:d8:4e:71:87:35:92:dd:d0:e3:23:e1:1f:ca:
                    e6:aa:24:08:9e:45:7f:e9:45:76:eb:94:07:54:63:
                    7d:64:f1:48:2b:b6:d3:32:c8:2b:88:f9:6a:68:0a:
                    42:2f:ce:b3:8d:c9:67:37:fe:cb:41:33:05:66:92:
                    b4:49:d7:65:e6:ba:89:6c:a4:2e:4c:8e:37:03:85:
                    61:0a:3c:6b:f4:c2:60:1a:59:95:51:cc:f0:f9:bb:
                    ce:a0:94:d5:14:ec:ce:a7:f1:27:3a:ee:a3:63:0b:
                    8b:96:ec:e0:26:18:8d:1c:0f:87:88:2e:8d:12:2d:
                    8a:42:5f:64:82:2f:85:1b:d2:9b:99:3b:76:80:df:
                    f5:69:e8:52:7d:c6:a0:7d:3a:96:38:ac:95:b1:68:
                    c4:d4:cd:8c:1f:8d:bf:8d:ee:a3:f1:76:5a:5a:a6:
                    d0:aa:58:14:a9:f5:f4:15:ba:c1:0f:b3:61:ce:d6:
                    89:bb:f7:38:53:50:2d:83:71:04:0d:aa:2d:4d:ff:
                    01:0b:8c:a8:78:66:25:b9:fc:54:65:c0:be:fc:4e:
                    86:b3:c0:72:4a:6f:25:f0:85:e8:72:a6:46:da:d5:
                    23:3d:70:fa:fa:ed:e0:10:6d:b3:4c:69:ae:f4:0c:
                    c8:99
                Exponent: 65537 (0x10001)
        X509v3 extensions:
            X509v3 Key Usage: critical
                Digital Signature, Key Encipherment
            X509v3 Basic Constraints: 
                CA:FALSE
            X509v3 Extended Key Usage: 
                TLS Web Server Authentication, TLS Web Client Authentication
            X509v3 Subject Key Identifier: 
                11:71:E4:61:1A:6D:A9:CC:43:23:BF:BD:BE:F5:6B:92:D9:6B:F8:DE
            X509v3 Authority Key Identifier: 
                FE:6D:67:B0:11:E4:BB:CF:70:E0:75:A6:1C:21:33:83:15:32:5B:7B
            Authority Information Access: 
                CA Issuers - URI:http://example.com/ca/cluster.cer
            X509v3 CRL Distribution Points: 
                Full Name:
                  URI:http://example.com/ca/cluster.crl
            X509v3 Subject Alternative Name: 
                DNS:localhost
    Signature Algorithm: sha1WithRSAEncryption
    Signature Value:
        98:ef:1d:dc:6c:4b:07:3e:18:be:6d:c2:ae:4c:50:21:72:6f:
        8d:02:34:46:6e:7f:29:54:c4:28:6a:54:18:1c:a3:47:8d:1a:
        70:4c:95:13:dc:4c:12:d8:2a:ae:65:d0:0e:b4:9f:05:10:01:
        a8:48:96:8e:68:d9:52:6d:c1:92:27:cc:95:52:8e:e8:fc:59:
        be:78:3c:71:63:b4:78:d4:3e:23:95:18:9d:2e:32:6d:12:b1:
        42:cf:d5:cb:3a:7b:2a:29:e6:8e:c7:57:ac:a1:24:f9:93:70:
        32:7e:6e:4d:3b:3c:43:c2:89:eb:c4:c8:17:0e:73:9f:5d:56:
        5b:ec:35:a3:af:10:18:79:79:ed:1e:b6:69:cb:31:20:e0:1b:
        6a:fb:3b:f5:e6:31:f3:e5:3a:e9:38:54:e6:71:87:09:15:7e:
        ce:aa:1f:d9:2f:f4:6a:0d:ef:ad:fd:fe:59:44:85:f4:b6:ae:
        45:b5:90:21:9e:9e:cf:a5:6f:fa:7d:72:a4:6a:2b:cc:1d:45:
        ae:46:16:23:c8:1f:76:0f:02:6c:e4:1f:a9:d7:0b:f3:c2:ab:
        b5:37:3a:b4:aa:3f:7a:62:4b:ac:b6:39:76:08:e5:66:9e:d4:
        b5:e3:8e:82:4c:d7:4b:24:fa:5b:63:d7:69:a0:f3:fe:fb:c1:
        68:cd:9c:28
-----BEGIN CERTIFICATE-----
MIIEOzCCAyOgAwIBAgIBAjANBgkqhkiG9w0BAQUFADBrMQswCQYDVQQGEwJTRTEQ
MA4GA1UECgwHRXhhbXBsZTEmMCQGA1UECwwdRXhhbXBsZSBDZXJ0aWZpY2F0ZSBB
dXRob3JpdHkxIjAgBgNVBAMMGUV4YW1wbGUgQ2x1c3RlciBBdXRob3JpdHkwHhcN
MjQwMTA5MTQ1ODQ1WhcNMjkwNzAxMTQ1ODQ1WjBMMQswCQYDVQQGEwJTRTEQMA4G
A1UECgwHRXhhbXBsZTEYMBYGA1UECwwPRXhhbXBsZSBDbHVzdGVyMREwDwYDVQQD
DAhTZXJ2ZXIgMTCCASIwDQYJKoZIhvcNAQEBBQADggEPADCCAQoCggEBAJdC6qMu
sAzhsinY/eNRFRfYTnGHNZLd0OMj4R/K5qokCJ5Ff+lFduuUB1RjfWTxSCu20zLI
K4j5amgKQi/Os43JZzf+y0EzBWaStEnXZea6iWykLkyONwOFYQo8a/TCYBpZlVHM
8Pm7zqCU1RTszqfxJzruo2MLi5bs4CYYjRwPh4gujRItikJfZIIvhRvSm5k7doDf
9WnoUn3GoH06ljislbFoxNTNjB+Nv43uo/F2Wlqm0KpYFKn19BW6wQ+zYc7Wibv3
OFNQLYNxBA2qLU3/AQuMqHhmJbn8VGXAvvxOhrPAckpvJfCF6HKmRtrVIz1w+vrt
4BBts0xprvQMyJkCAwEAAaOCAQcwggEDMA4GA1UdDwEB/wQEAwIFoDAJBgNVHRME
AjAAMB0GA1UdJQQWMBQGCCsGAQUFBwMBBggrBgEFBQcDAjAdBgNVHQ4EFgQUEXHk
YRptqcxDI7+9vvVrktlr+N4wHwYDVR0jBBgwFoAU/m1nsBHku89w4HWmHCEzgxUy
W3swPQYIKwYBBQUHAQEEMTAvMC0GCCsGAQUFBzAChiFodHRwOi8vZXhhbXBsZS5j
b20vY2EvY2x1c3Rlci5jZXIwMgYDVR0fBCswKTAnoCWgI4YhaHR0cDovL2V4YW1w
bGUuY29tL2NhL2NsdXN0ZXIuY3JsMBQGA1UdEQQNMAuCCWxvY2FsaG9zdDANBgkq
hkiG9w0BAQUFAAOCAQEAmO8d3GxLBz4Yvm3CrkxQIXJvjQI0Rm5/KVTEKGpUGByj
R40acEyVE9xMEtgqrmXQDrSfBRABqEiWjmjZUm3BkifMlVKO6PxZvng8cWO0eNQ+
I5UYnS4ybRKxQs/Vyzp7KinmjsdXrKEk+ZNwMn5uTTs8Q8KJ68TIFw5zn11WW+w1
o68QGHl57R62acsxIOAbavs79eYx8+U66ThU5nGHCRV+zqof2S/0ag3vrf3+WUSF
9LauRbWQIZ6ez6Vv+n1ypGorzB1FrkYWI8gfdg8CbOQfqdcL88KrtTc6tKo/emJL
rLY5dgjlZp7UteOOgkzXSyT6W2PXaaDz/vvBaM2cKA==
-----END CERTIFICATE-----
