Certificate:
    Data:
        Version: 3 (0x2)
        Serial Number: 2 (0x2)
    Signature Algorithm: sha1WithRSAEncryption
        Issuer: C=SE, O=Example, OU=Example Certificate Authority, CN=Example Cluster Authority
        Validity
            Not Before: Mar 13 11:42:59 2018 GMT
            Not After : Sep  3 11:42:59 2023 GMT
        Subject: C=SE, O=Example, OU=Example Cluster, CN=Server 1
        Subject Public Key Info:
            Public Key Algorithm: rsaEncryption
                Public-Key: (2048 bit)
                Modulus:
                    00:b3:e6:ba:2b:87:96:4e:46:94:bc:e8:42:19:87:
                    dd:e7:e0:79:c3:2b:b7:a7:99:f2:11:92:37:ca:38:
                    e6:6e:37:a4:94:f9:c8:6b:a9:e6:d6:89:b7:10:22:
                    5b:61:b3:cc:ae:3d:b2:b8:12:cb:1e:af:1d:7f:ba:
                    be:4b:46:09:29:45:65:c6:f9:48:ff:15:23:c2:f4:
                    a1:6f:8f:94:2e:a9:5a:f5:8a:e7:62:11:6c:b8:15:
                    3c:9e:76:7c:b4:2b:ce:fc:f5:9f:40:e0:8b:94:0a:
                    eb:55:03:48:b4:ff:25:91:ba:70:d2:bd:83:e0:5a:
                    18:68:ca:a7:d1:90:72:4f:ed:18:f5:36:98:b5:54:
                    12:6d:f1:08:fd:16:39:60:ec:82:05:f2:08:11:76:
                    78:a8:10:93:64:10:9b:d2:88:48:74:a0:d0:27:ec:
                    58:0f:83:75:9c:01:37:0d:3f:09:2b:a9:75:d3:7f:
                    d4:26:a6:4e:ab:b6:12:66:17:d0:1a:a8:c8:4d:be:
                    e0:3b:76:fb:ae:fc:34:4f:4a:58:4d:12:e7:83:e1:
                    98:2c:04:c8:3a:b3:8a:0c:48:99:ea:9d:7b:88:dd:
                    4e:2c:1c:2c:27:82:21:28:59:3d:d1:21:1b:ae:4d:
                    3d:fb:74:0e:d6:f0:c0:cf:72:a2:3f:87:60:5a:c0:
                    76:07
                Exponent: 65537 (0x10001)
        X509v3 extensions:
            X509v3 Key Usage: critical
                Digital Signature, Key Encipherment
            X509v3 Basic Constraints: 
                CA:FALSE
            X509v3 Extended Key Usage: 
                TLS Web Server Authentication, TLS Web Client Authentication
            X509v3 Subject Key Identifier: 
                9D:EE:38:78:B2:13:75:F9:C5:4C:A3:21:DC:5C:CC:5E:42:94:11:B0
            X509v3 Authority Key Identifier: 
                keyid:D0:17:85:14:AC:81:1D:29:A4:75:73:01:87:5C:40:D2:84:68:3D:4F

            Authority Information Access: 
                CA Issuers - URI:http://example.com/ca/cluster.cer

            X509v3 CRL Distribution Points: 

                Full Name:
                  URI:http://example.com/ca/cluster.crl

    Signature Algorithm: sha1WithRSAEncryption
         4e:1b:5c:59:b1:55:3c:c5:1c:d4:5c:8c:2e:10:48:aa:b5:9d:
         8b:1b:95:ec:4c:33:0d:50:d9:82:d4:f2:88:1f:7c:1f:12:b3:
         db:d4:bc:9b:66:73:0b:f4:cd:54:1d:8d:8f:1d:96:fb:5e:c3:
         87:9b:f8:91:cb:c1:5e:55:35:f9:07:cc:9a:39:81:41:68:02:
         a3:50:c1:74:e9:3d:d1:94:b0:36:64:57:7c:0e:20:11:a7:5b:
         d9:69:40:e7:ee:ad:e9:59:1e:b3:e1:f3:04:4a:ce:4e:0f:79:
         c4:b0:58:6f:f2:53:83:a2:f7:f0:6a:82:15:7e:d9:f1:c3:a7:
         d2:02:b4:d5:da:15:b6:56:f7:5a:0e:94:97:b9:b6:0f:8f:e0:
         7f:0d:fa:14:6f:4a:6b:91:ad:bc:2a:4e:df:fd:9d:2b:c0:1e:
         9f:3e:33:c6:d5:74:16:0a:7f:a9:d4:08:1c:f6:74:ab:45:55:
         7c:7e:12:9c:7f:57:9e:05:9e:34:cb:71:de:d9:f8:32:c9:76:
         ad:74:82:e3:39:a2:a4:59:b8:51:82:3b:34:5d:b0:16:b5:9e:
         a2:4e:1e:d7:56:3b:45:2a:39:9a:2d:27:f8:62:91:d4:f7:85:
         03:6f:94:44:7a:0f:e1:27:bb:97:8a:58:d1:41:76:18:17:00:
         ab:82:d7:f5
-----BEGIN CERTIFICATE-----
MIIEIzCCAwugAwIBAgIBAjANBgkqhkiG9w0BAQUFADBrMQswCQYDVQQGEwJTRTEQ
MA4GA1UECgwHRXhhbXBsZTEmMCQGA1UECwwdRXhhbXBsZSBDZXJ0aWZpY2F0ZSBB
dXRob3JpdHkxIjAgBgNVBAMMGUV4YW1wbGUgQ2x1c3RlciBBdXRob3JpdHkwHhcN
MTgwMzEzMTE0MjU5WhcNMjMwOTAzMTE0MjU5WjBMMQswCQYDVQQGEwJTRTEQMA4G
A1UECgwHRXhhbXBsZTEYMBYGA1UECwwPRXhhbXBsZSBDbHVzdGVyMREwDwYDVQQD
DAhTZXJ2ZXIgMTCCASIwDQYJKoZIhvcNAQEBBQADggEPADCCAQoCggEBALPmuiuH
lk5GlLzoQhmH3efgecMrt6eZ8hGSN8o45m43pJT5yGup5taJtxAiW2GzzK49srgS
yx6vHX+6vktGCSlFZcb5SP8VI8L0oW+PlC6pWvWK52IRbLgVPJ52fLQrzvz1n0Dg
i5QK61UDSLT/JZG6cNK9g+BaGGjKp9GQck/tGPU2mLVUEm3xCP0WOWDsggXyCBF2
eKgQk2QQm9KISHSg0CfsWA+DdZwBNw0/CSupddN/1CamTqu2EmYX0BqoyE2+4Dt2
+678NE9KWE0S54PhmCwEyDqzigxImeqde4jdTiwcLCeCIShZPdEhG65NPft0Dtbw
wM9yoj+HYFrAdgcCAwEAAaOB8DCB7TAOBgNVHQ8BAf8EBAMCBaAwCQYDVR0TBAIw
ADAdBgNVHSUEFjAUBggrBgEFBQcDAQYIKwYBBQUHAwIwHQYDVR0OBBYEFJ3uOHiy
E3X5xUyjIdxczF5ClBGwMB8GA1UdIwQYMBaAFNAXhRSsgR0ppHVzAYdcQNKEaD1P
MD0GCCsGAQUFBwEBBDEwLzAtBggrBgEFBQcwAoYhaHR0cDovL2V4YW1wbGUuY29t
L2NhL2NsdXN0ZXIuY2VyMDIGA1UdHwQrMCkwJ6AloCOGIWh0dHA6Ly9leGFtcGxl
LmNvbS9jYS9jbHVzdGVyLmNybDANBgkqhkiG9w0BAQUFAAOCAQEAThtcWbFVPMUc
1FyMLhBIqrWdixuV7EwzDVDZgtTyiB98HxKz29S8m2ZzC/TNVB2Njx2W+17Dh5v4
kcvBXlU1+QfMmjmBQWgCo1DBdOk90ZSwNmRXfA4gEadb2WlA5+6t6Vkes+HzBErO
Tg95xLBYb/JTg6L38GqCFX7Z8cOn0gK01doVtlb3Wg6Ul7m2D4/gfw36FG9Ka5Gt
vCpO3/2dK8Aenz4zxtV0Fgp/qdQIHPZ0q0VVfH4SnH9XngWeNMtx3tn4Msl2rXSC
4zmipFm4UYI7NF2wFrWeok4e11Y7RSo5mi0n+GKR1PeFA2+URHoP4Se7l4pY0UF2
GBcAq4LX9Q==
-----END CERTIFICATE-----
