Certificate:
    Data:
        Version: 3 (0x2)
        Serial Number: 2 (0x2)
        Signature Algorithm: sha256WithRSAEncryption
        Issuer: C=SE, O=Example, OU=Example Certificate Authority, CN=Example Cluster Authority
        Validity
            Not Before: Nov 26 11:09:47 2021 GMT
            Not After : May 19 11:09:47 2027 GMT
        Subject: C=SE, O=Example, OU=Example Cluster, CN=Server 1
        Subject Public Key Info:
            Public Key Algorithm: rsaEncryption
                RSA Public-Key: (2048 bit)
                Modulus:
                    00:e5:eb:f6:c8:2a:67:d4:55:cd:fb:2b:c8:3b:b1:
                    ef:b0:d6:16:ff:1a:78:aa:79:3a:6f:0c:a1:20:ea:
                    a8:d8:ef:34:f8:77:92:f5:b6:a2:49:9c:ad:f6:e8:
                    5a:dc:52:ad:4a:da:5e:db:22:94:67:07:1d:e0:e8:
                    e7:d0:18:24:b5:dc:96:3d:64:c9:9c:d5:52:3d:91:
                    dc:da:39:7d:a0:eb:60:92:19:64:21:01:1f:cf:bc:
                    f1:ea:e3:c8:5f:68:a3:93:3e:14:b4:c8:af:c8:c0:
                    81:53:d0:3c:d3:98:f3:08:15:34:ee:33:60:04:12:
                    72:01:6f:4a:6a:dd:3d:c5:1e:9a:65:50:fb:6b:c3:
                    61:f6:67:a8:5a:b4:64:c2:6a:62:9c:fc:4a:85:49:
                    c3:99:54:5c:67:f4:95:87:83:67:0c:42:5f:cd:2c:
                    bc:23:f1:cc:ab:2b:56:7d:a7:b1:f7:e1:5d:52:18:
                    5c:f1:13:6e:f9:1c:10:6d:c3:03:0b:9c:5c:2d:98:
                    5c:03:08:d6:e3:02:20:2b:7c:9f:4a:0f:2c:33:59:
                    e6:13:6b:01:d6:22:37:fb:b3:86:b2:7e:4b:33:c3:
                    8f:e1:75:f2:d1:22:bc:5e:c3:47:df:f3:1e:77:ce:
                    b5:3e:9a:de:d3:9a:a3:38:2a:8c:85:c6:95:71:e1:
                    f7:eb
                Exponent: 65537 (0x10001)
        X509v3 extensions:
            X509v3 Key Usage: critical
                Digital Signature, Key Encipherment
            X509v3 Basic Constraints: 
                CA:FALSE
            X509v3 Extended Key Usage: 
                TLS Web Server Authentication, TLS Web Client Authentication
            X509v3 Subject Key Identifier: 
                4A:6E:8D:0D:23:07:6F:DA:07:F2:15:F4:AC:55:97:44:3A:AE:89:6D
            X509v3 Authority Key Identifier: 
                keyid:83:BA:16:EC:04:23:A7:40:34:8B:A0:3A:35:ED:CE:B6:E8:95:8E:2D

            Authority Information Access: 
                CA Issuers - URI:http://example.com/ca/cluster.cer

            X509v3 CRL Distribution Points: 

                Full Name:
                  URI:http://example.com/ca/cluster.crl

            X509v3 Subject Alternative Name: 
                DNS:localhost
    Signature Algorithm: sha256WithRSAEncryption
         be:8c:12:99:bc:02:9d:7a:d2:0e:94:00:96:94:7b:fe:81:d1:
         e1:0f:01:f4:38:6b:de:e4:54:90:3f:0e:2e:6f:67:02:40:9a:
         2c:95:a9:cd:9d:ce:1a:a2:3e:4f:ef:5b:e2:08:d7:42:e6:24:
         d6:23:e0:27:40:a2:c2:20:38:3c:02:63:2b:11:89:c5:fb:8c:
         94:5f:e6:e5:13:2b:47:84:e8:aa:78:06:ad:c3:2e:40:9e:8e:
         54:cd:e0:a0:7f:51:ce:bf:d9:5e:49:96:48:1b:3b:d2:09:df:
         7a:dc:06:47:b6:9c:4c:8f:cd:d1:2b:27:ad:d9:89:37:6d:02:
         3d:86:6d:26:05:a5:24:f6:43:49:23:c4:c4:36:94:c7:c3:a9:
         89:2c:24:70:88:91:f5:03:17:1a:5f:d9:7c:70:8a:19:4e:65:
         64:c0:d8:35:15:be:a8:47:c8:cd:58:57:3d:68:2d:2c:e7:4a:
         28:7e:b7:a4:a4:11:ee:46:e4:a8:cf:17:71:ed:ac:da:93:f6:
         bf:b3:13:95:f9:96:f6:db:9a:3c:46:a2:9f:bc:73:2d:aa:4a:
         18:70:ee:5f:cb:67:52:70:c7:43:d9:a8:b5:3b:24:6c:c8:01:
         a7:d3:69:3e:b3:79:eb:2a:89:55:89:a0:27:f5:7d:f0:61:c4:
         4c:13:a5:c7
-----BEGIN CERTIFICATE-----
MIIEOzCCAyOgAwIBAgIBAjANBgkqhkiG9w0BAQsFADBrMQswCQYDVQQGEwJTRTEQ
MA4GA1UECgwHRXhhbXBsZTEmMCQGA1UECwwdRXhhbXBsZSBDZXJ0aWZpY2F0ZSBB
dXRob3JpdHkxIjAgBgNVBAMMGUV4YW1wbGUgQ2x1c3RlciBBdXRob3JpdHkwHhcN
MjExMTI2MTEwOTQ3WhcNMjcwNTE5MTEwOTQ3WjBMMQswCQYDVQQGEwJTRTEQMA4G
A1UECgwHRXhhbXBsZTEYMBYGA1UECwwPRXhhbXBsZSBDbHVzdGVyMREwDwYDVQQD
DAhTZXJ2ZXIgMTCCASIwDQYJKoZIhvcNAQEBBQADggEPADCCAQoCggEBAOXr9sgq
Z9RVzfsryDux77DWFv8aeKp5Om8MoSDqqNjvNPh3kvW2okmcrfboWtxSrUraXtsi
lGcHHeDo59AYJLXclj1kyZzVUj2R3No5faDrYJIZZCEBH8+88erjyF9oo5M+FLTI
r8jAgVPQPNOY8wgVNO4zYAQScgFvSmrdPcUemmVQ+2vDYfZnqFq0ZMJqYpz8SoVJ
w5lUXGf0lYeDZwxCX80svCPxzKsrVn2nsffhXVIYXPETbvkcEG3DAwucXC2YXAMI
1uMCICt8n0oPLDNZ5hNrAdYiN/uzhrJ+SzPDj+F18tEivF7DR9/zHnfOtT6a3tOa
ozgqjIXGlXHh9+sCAwEAAaOCAQcwggEDMA4GA1UdDwEB/wQEAwIFoDAJBgNVHRME
AjAAMB0GA1UdJQQWMBQGCCsGAQUFBwMBBggrBgEFBQcDAjAdBgNVHQ4EFgQUSm6N
DSMHb9oH8hX0rFWXRDquiW0wHwYDVR0jBBgwFoAUg7oW7AQjp0A0i6A6Ne3OtuiV
ji0wPQYIKwYBBQUHAQEEMTAvMC0GCCsGAQUFBzAChiFodHRwOi8vZXhhbXBsZS5j
b20vY2EvY2x1c3Rlci5jZXIwMgYDVR0fBCswKTAnoCWgI4YhaHR0cDovL2V4YW1w
bGUuY29tL2NhL2NsdXN0ZXIuY3JsMBQGA1UdEQQNMAuCCWxvY2FsaG9zdDANBgkq
hkiG9w0BAQsFAAOCAQEAvowSmbwCnXrSDpQAlpR7/oHR4Q8B9Dhr3uRUkD8OLm9n
AkCaLJWpzZ3OGqI+T+9b4gjXQuYk1iPgJ0CiwiA4PAJjKxGJxfuMlF/m5RMrR4To
qngGrcMuQJ6OVM3goH9Rzr/ZXkmWSBs70gnfetwGR7acTI/N0SsnrdmJN20CPYZt
JgWlJPZDSSPExDaUx8OpiSwkcIiR9QMXGl/ZfHCKGU5lZMDYNRW+qEfIzVhXPWgt
LOdKKH63pKQR7kbkqM8Xce2s2pP2v7MTlfmW9tuaPEain7xzLapKGHDuX8tnUnDH
Q9motTskbMgBp9NpPrN56yqJVYmgJ/V98GHETBOlxw==
-----END CERTIFICATE-----
