Certificate:
    Data:
        Version: 3 (0x2)
        Serial Number: 3 (0x3)
        Signature Algorithm: sha1WithRSAEncryption
        Issuer: C=SE, O=Example, OU=Example Certificate Authority, CN=Example Cluster Authority
        Validity
            Not Before: Jun 20 09:16:09 2017 GMT
            Not After : Dec 11 09:16:09 2022 GMT
        Subject: C=SE, O=Example, OU=Example Cluster, CN=Server 2
        Subject Public Key Info:
            Public Key Algorithm: rsaEncryption
            RSA Public Key: (2048 bit)
                Modulus (2048 bit):
                    00:d1:59:70:82:28:37:f9:1c:03:41:85:dc:06:93:
                    02:f9:ce:71:e5:70:e3:66:b5:ea:06:47:80:c8:8d:
                    98:68:00:21:00:9f:fb:9f:61:86:4a:11:45:44:f1:
                    d8:7c:c6:41:06:6c:c9:5a:7e:c4:f6:ce:05:90:ae:
                    e3:2b:cc:53:a9:de:e3:b2:ab:48:44:81:a9:d2:5b:
                    8f:41:95:9c:9e:9b:38:63:b6:52:e7:a8:90:29:2f:
                    d2:a1:8b:d4:39:05:cc:e6:1b:d6:79:15:0c:ed:c0:
                    d6:6f:f3:f2:fc:a0:19:49:3c:c5:62:57:5f:ff:fc:
                    7a:07:90:78:ad:7b:83:bb:90:c2:af:09:9f:fc:78:
                    93:ce:ad:36:7a:41:51:45:02:f1:d4:64:07:ae:4f:
                    9b:63:54:77:91:8c:d6:cc:8c:0d:fd:f1:86:e0:d4:
                    8e:5d:18:aa:b4:67:e0:71:b1:01:d9:2c:7a:06:6f:
                    b6:e0:40:6f:83:4f:da:82:ca:c3:17:20:c9:15:74:
                    e1:0b:e3:3a:a1:38:cd:d4:c5:db:58:00:2e:f1:7e:
                    1d:36:34:8f:d6:2f:82:0e:d5:fd:ba:6f:0d:ba:96:
                    8b:6d:79:28:9f:a1:45:91:e0:c8:43:aa:71:57:6a:
                    59:5b:c2:79:26:a6:5c:fc:4d:ea:b5:48:fc:29:b6:
                    ef:ef
                Exponent: 65537 (0x10001)
        X509v3 extensions:
            X509v3 Key Usage: critical
                Digital Signature, Key Encipherment
            X509v3 Basic Constraints: 
                CA:FALSE
            X509v3 Extended Key Usage: 
                TLS Web Server Authentication, TLS Web Client Authentication
            X509v3 Subject Key Identifier: 
                B6:4D:AC:31:E4:A7:7C:77:E4:17:41:4F:58:C7:E4:BB:88:28:7F:D8
            X509v3 Authority Key Identifier: 
                keyid:DB:AE:9D:4D:E7:B8:84:A6:E8:E8:2D:1B:AD:73:AE:2C:21:11:E0:2C

            Authority Information Access: 
                CA Issuers - URI:http://example.com/ca/cluster.cer

            X509v3 CRL Distribution Points: 
                URI:http://example.com/ca/cluster.crl

    Signature Algorithm: sha1WithRSAEncryption
        9f:7f:ae:64:67:7d:2c:61:f0:47:72:1c:3c:7a:36:84:3e:56:
        dd:5c:d6:b1:dc:bc:67:8b:b5:9e:35:0a:86:a1:3a:e4:9b:9e:
        d1:81:9b:46:73:2a:91:58:87:1c:8e:a1:69:b4:df:c3:0e:b7:
        68:ff:e4:c7:d7:be:95:93:c0:e5:24:85:da:66:9f:85:74:e1:
        f1:23:ea:1c:dd:0a:1d:f7:66:c6:a6:18:cf:72:40:dd:19:22:
        38:99:bc:1b:59:dd:30:6b:56:09:b8:ad:25:7e:94:30:1a:02:
        26:82:25:ad:91:48:3e:0c:15:d0:4b:b4:3f:b5:4f:30:37:8b:
        e7:8d:8e:6b:ab:4a:0d:60:be:bd:f9:c9:a6:56:b0:79:d9:3b:
        03:9f:1a:6e:1b:a8:e7:20:06:d5:0b:ac:21:53:d8:70:99:6e:
        fe:a2:8d:1b:4f:22:d6:12:70:89:0a:4b:be:42:3e:ae:b1:55:
        95:67:11:2b:ac:d4:90:7e:f4:49:49:49:87:fd:14:8a:42:fc:
        77:e6:49:5f:ac:39:e5:3c:b2:af:02:57:06:f9:0d:72:75:d8:
        98:fd:67:d1:5f:e7:2b:9c:78:c5:a7:2d:5d:72:07:e7:a7:c7:
        88:c4:d9:be:45:a8:e5:d0:a1:0c:87:9b:89:68:84:ae:54:64:
        95:4c:f2:2d
-----BEGIN CERTIFICATE-----
MIIEIzCCAwugAwIBAgIBAzANBgkqhkiG9w0BAQUFADBrMQswCQYDVQQGEwJTRTEQ
MA4GA1UECgwHRXhhbXBsZTEmMCQGA1UECwwdRXhhbXBsZSBDZXJ0aWZpY2F0ZSBB
dXRob3JpdHkxIjAgBgNVBAMMGUV4YW1wbGUgQ2x1c3RlciBBdXRob3JpdHkwHhcN
MTcwNjIwMDkxNjA5WhcNMjIxMjExMDkxNjA5WjBMMQswCQYDVQQGEwJTRTEQMA4G
A1UECgwHRXhhbXBsZTEYMBYGA1UECwwPRXhhbXBsZSBDbHVzdGVyMREwDwYDVQQD
DAhTZXJ2ZXIgMjCCASIwDQYJKoZIhvcNAQEBBQADggEPADCCAQoCggEBANFZcIIo
N/kcA0GF3AaTAvnOceVw42a16gZHgMiNmGgAIQCf+59hhkoRRUTx2HzGQQZsyVp+
xPbOBZCu4yvMU6ne47KrSESBqdJbj0GVnJ6bOGO2UueokCkv0qGL1DkFzOYb1nkV
DO3A1m/z8vygGUk8xWJXX//8egeQeK17g7uQwq8Jn/x4k86tNnpBUUUC8dRkB65P
m2NUd5GM1syMDf3xhuDUjl0YqrRn4HGxAdksegZvtuBAb4NP2oLKwxcgyRV04Qvj
OqE4zdTF21gALvF+HTY0j9Yvgg7V/bpvDbqWi215KJ+hRZHgyEOqcVdqWVvCeSam
XPxN6rVI/Cm27+8CAwEAAaOB8DCB7TAOBgNVHQ8BAf8EBAMCBaAwCQYDVR0TBAIw
ADAdBgNVHSUEFjAUBggrBgEFBQcDAQYIKwYBBQUHAwIwHQYDVR0OBBYEFLZNrDHk
p3x35BdBT1jH5LuIKH/YMB8GA1UdIwQYMBaAFNuunU3nuISm6OgtG61zriwhEeAs
MD0GCCsGAQUFBwEBBDEwLzAtBggrBgEFBQcwAoYhaHR0cDovL2V4YW1wbGUuY29t
L2NhL2NsdXN0ZXIuY2VyMDIGA1UdHwQrMCkwJ6AloCOGIWh0dHA6Ly9leGFtcGxl
LmNvbS9jYS9jbHVzdGVyLmNybDANBgkqhkiG9w0BAQUFAAOCAQEAn3+uZGd9LGHw
R3IcPHo2hD5W3VzWsdy8Z4u1njUKhqE65Jue0YGbRnMqkViHHI6habTfww63aP/k
x9e+lZPA5SSF2mafhXTh8SPqHN0KHfdmxqYYz3JA3RkiOJm8G1ndMGtWCbitJX6U
MBoCJoIlrZFIPgwV0Eu0P7VPMDeL542Oa6tKDWC+vfnJplawedk7A58abhuo5yAG
1QusIVPYcJlu/qKNG08i1hJwiQpLvkI+rrFVlWcRK6zUkH70SUlJh/0UikL8d+ZJ
X6w55TyyrwJXBvkNcnXYmP1n0V/nK5x4xactXXIH56fHiMTZvkWo5dChDIebiWiE
rlRklUzyLQ==
-----END CERTIFICATE-----
