Certificate:
    Data:
        Version: 3 (0x2)
        Serial Number: 5 (0x5)
    Signature Algorithm: sha1WithRSAEncryption
        Issuer: C=SE, O=Example, OU=Example Certificate Authority, CN=Example Cluster Authority
        Validity
            Not Before: Jul  9 14:29:06 2018 GMT
            Not After : Dec 30 14:29:06 2023 GMT
        Subject: C=SE, O=Example, OU=Example Cluster, CN=Server 4
        Subject Public Key Info:
            Public Key Algorithm: rsaEncryption
                Public-Key: (2048 bit)
                Modulus:
                    00:b7:cc:44:7f:29:94:91:4b:b3:5d:16:fa:23:8e:
                    19:f5:a7:c5:5d:5b:84:98:1c:17:52:0f:a8:cb:fb:
                    5b:22:ec:64:21:c2:e2:ef:72:fb:4f:6e:4c:0a:de:
                    2a:b6:91:28:90:98:7a:68:90:f0:ce:1d:d5:84:00:
                    b4:e3:48:23:41:1a:33:15:e5:02:e4:a9:63:69:e5:
                    7c:26:e3:f3:60:29:22:cd:0e:31:d4:10:27:81:8c:
                    03:f0:16:7e:78:7b:fb:15:1f:1c:c3:b9:82:21:f2:
                    93:e4:cd:f3:ca:f3:19:11:81:9f:a0:27:3b:de:29:
                    a9:21:8a:9f:05:f0:df:d5:be:f3:5a:0c:18:d4:e3:
                    f2:43:9c:da:3c:31:08:2b:90:3e:a1:c5:de:54:94:
                    63:7b:5f:07:99:eb:fc:f3:7b:29:eb:78:e1:e9:73:
                    b2:cd:06:c8:f8:9b:5a:d8:3f:31:38:ce:ff:b3:6c:
                    14:15:c2:e4:78:f0:49:79:80:c1:51:c6:3f:7b:29:
                    b7:c7:cc:59:7f:b0:70:c3:ac:14:07:3d:f5:cd:61:
                    02:d9:65:32:7f:d2:4e:d0:b3:b8:49:6b:9d:10:37:
                    c1:da:ec:e4:0a:f2:32:29:e7:95:fb:7b:4d:d1:51:
                    a2:82:e3:11:fd:a8:70:01:c9:fd:e3:e4:bd:a0:66:
                    fd:81
                Exponent: 65537 (0x10001)
        X509v3 extensions:
            X509v3 Key Usage: critical
                Digital Signature, Key Encipherment
            X509v3 Basic Constraints: 
                CA:FALSE
            X509v3 Extended Key Usage: 
                TLS Web Server Authentication, TLS Web Client Authentication
            X509v3 Subject Key Identifier: 
                77:B7:99:45:55:DC:08:4B:98:B7:25:06:2A:9A:D8:38:25:63:05:57
            X509v3 Authority Key Identifier: 
                keyid:BD:CD:52:9A:5A:3D:8A:10:85:DF:95:56:63:EE:2B:3A:74:74:E4:33

            Authority Information Access: 
                CA Issuers - URI:http://example.com/ca/cluster.cer

            X509v3 CRL Distribution Points: 

                Full Name:
                  URI:http://example.com/ca/cluster.crl

            X509v3 Subject Alternative Name: 
                DNS:localhost
    Signature Algorithm: sha1WithRSAEncryption
         ad:ad:fc:7e:4a:a7:8d:e0:58:ea:c1:62:c2:41:48:78:da:a2:
         e6:b8:8c:41:ac:a8:e8:54:a0:bc:c8:fa:3b:b4:a9:44:8c:5e:
         79:16:b7:2b:fd:2f:26:eb:2b:e0:8a:71:3d:8e:e8:cf:e9:5b:
         d3:56:5e:3d:ca:73:27:17:3a:08:a3:21:c4:82:3e:08:76:ea:
         91:0c:8e:25:71:74:a2:cd:4b:b6:b6:d2:57:b7:b6:65:44:88:
         f6:b2:dc:4b:e3:e5:95:49:75:9a:4c:44:8e:89:96:cd:96:31:
         ea:da:2e:7c:01:18:ae:5f:ac:0c:78:c2:c9:d8:a6:82:fb:57:
         42:87:1c:c1:84:00:17:d4:d6:83:04:f0:3c:af:ea:f5:c3:a2:
         d0:13:7a:34:27:eb:1c:b8:14:e3:9b:f1:55:23:7c:0c:ca:3d:
         b5:a7:fe:fd:11:55:c8:02:64:8a:a6:86:35:44:e2:af:2d:61:
         53:1d:6f:80:c8:33:15:49:72:d3:22:99:d8:82:a6:87:79:5d:
         63:d4:29:af:0a:24:be:7b:74:91:c2:39:7e:69:5a:10:42:4d:
         39:1c:ae:c0:94:45:cc:57:94:c6:be:4c:75:1c:e3:c4:7b:0a:
         3a:8a:8f:ba:28:2b:54:69:71:11:63:b8:3c:c7:bf:67:fc:0e:
         10:c8:71:b9
-----BEGIN CERTIFICATE-----
MIIEOzCCAyOgAwIBAgIBBTANBgkqhkiG9w0BAQUFADBrMQswCQYDVQQGEwJTRTEQ
MA4GA1UECgwHRXhhbXBsZTEmMCQGA1UECwwdRXhhbXBsZSBDZXJ0aWZpY2F0ZSBB
dXRob3JpdHkxIjAgBgNVBAMMGUV4YW1wbGUgQ2x1c3RlciBBdXRob3JpdHkwHhcN
MTgwNzA5MTQyOTA2WhcNMjMxMjMwMTQyOTA2WjBMMQswCQYDVQQGEwJTRTEQMA4G
A1UECgwHRXhhbXBsZTEYMBYGA1UECwwPRXhhbXBsZSBDbHVzdGVyMREwDwYDVQQD
DAhTZXJ2ZXIgNDCCASIwDQYJKoZIhvcNAQEBBQADggEPADCCAQoCggEBALfMRH8p
lJFLs10W+iOOGfWnxV1bhJgcF1IPqMv7WyLsZCHC4u9y+09uTAreKraRKJCYemiQ
8M4d1YQAtONII0EaMxXlAuSpY2nlfCbj82ApIs0OMdQQJ4GMA/AWfnh7+xUfHMO5
giHyk+TN88rzGRGBn6AnO94pqSGKnwXw39W+81oMGNTj8kOc2jwxCCuQPqHF3lSU
Y3tfB5nr/PN7Ket44elzss0GyPibWtg/MTjO/7NsFBXC5HjwSXmAwVHGP3spt8fM
WX+wcMOsFAc99c1hAtllMn/STtCzuElrnRA3wdrs5AryMinnlft7TdFRooLjEf2o
cAHJ/ePkvaBm/YECAwEAAaOCAQcwggEDMA4GA1UdDwEB/wQEAwIFoDAJBgNVHRME
AjAAMB0GA1UdJQQWMBQGCCsGAQUFBwMBBggrBgEFBQcDAjAdBgNVHQ4EFgQUd7eZ
RVXcCEuYtyUGKprYOCVjBVcwHwYDVR0jBBgwFoAUvc1Smlo9ihCF35VWY+4rOnR0
5DMwPQYIKwYBBQUHAQEEMTAvMC0GCCsGAQUFBzAChiFodHRwOi8vZXhhbXBsZS5j
b20vY2EvY2x1c3Rlci5jZXIwMgYDVR0fBCswKTAnoCWgI4YhaHR0cDovL2V4YW1w
bGUuY29tL2NhL2NsdXN0ZXIuY3JsMBQGA1UdEQQNMAuCCWxvY2FsaG9zdDANBgkq
hkiG9w0BAQUFAAOCAQEAra38fkqnjeBY6sFiwkFIeNqi5riMQayo6FSgvMj6O7Sp
RIxeeRa3K/0vJusr4IpxPY7oz+lb01ZePcpzJxc6CKMhxII+CHbqkQyOJXF0os1L
trbSV7e2ZUSI9rLcS+PllUl1mkxEjomWzZYx6toufAEYrl+sDHjCydimgvtXQocc
wYQAF9TWgwTwPK/q9cOi0BN6NCfrHLgU45vxVSN8DMo9taf+/RFVyAJkiqaGNUTi
ry1hUx1vgMgzFUly0yKZ2IKmh3ldY9Qprwokvnt0kcI5fmlaEEJNORyuwJRFzFeU
xr5MdRzjxHsKOoqPuigrVGlxEWO4PMe/Z/wOEMhxuQ==
-----END CERTIFICATE-----
