Certificate:
    Data:
        Version: 3 (0x2)
        Serial Number: 5 (0x5)
        Signature Algorithm: sha1WithRSAEncryption
        Issuer: C=SE, O=Example, OU=Example Certificate Authority, CN=Example Cluster Authority
        Validity
            Not Before: Jun 20 09:16:09 2017 GMT
            Not After : Dec 11 09:16:09 2022 GMT
        Subject: C=SE, O=Example, OU=Example Cluster, CN=Server 4
        Subject Public Key Info:
            Public Key Algorithm: rsaEncryption
            RSA Public Key: (2048 bit)
                Modulus (2048 bit):
                    00:d4:b3:7d:d6:8a:e6:c0:79:c0:81:67:e1:60:d7:
                    d0:90:c5:40:59:c8:a9:19:75:44:aa:d7:b2:29:02:
                    60:d5:13:cd:4e:01:be:47:d0:c9:fc:ec:0d:fa:56:
                    28:33:8c:59:44:07:af:fc:0b:b9:ff:f2:cc:ff:51:
                    55:a1:d1:a3:e9:32:83:e3:28:d9:a1:66:a6:20:ed:
                    1a:1c:a5:e6:4f:2e:17:90:fe:90:c8:a0:6c:97:de:
                    21:e4:49:59:5c:b9:fd:48:fc:b4:12:f2:48:34:3f:
                    23:f0:ca:ae:35:0b:f9:ff:87:e8:14:70:55:72:fd:
                    91:d7:c5:73:49:29:71:92:10:1f:20:85:7e:f3:2b:
                    02:57:dc:92:84:b9:84:85:3e:88:66:d3:a5:3c:e5:
                    ba:dd:08:0d:6b:5d:56:05:e7:b3:26:cf:40:22:1f:
                    64:ce:4f:66:cc:a0:ac:d0:d9:1c:57:1c:0c:5a:b8:
                    a3:84:6e:c4:ce:ab:a7:69:4b:cd:e9:9e:96:c1:c4:
                    ba:0d:67:3d:3f:60:bc:63:d4:62:b6:53:3c:ad:66:
                    cd:64:bc:de:56:b5:9b:ae:27:86:08:14:53:b1:ff:
                    53:33:07:6e:7b:0d:45:74:f9:60:2e:11:16:bd:1f:
                    64:30:be:ed:64:f5:74:33:3d:71:56:41:be:ee:26:
                    f4:ff
                Exponent: 65537 (0x10001)
        X509v3 extensions:
            X509v3 Key Usage: critical
                Digital Signature, Key Encipherment
            X509v3 Basic Constraints: 
                CA:FALSE
            X509v3 Extended Key Usage: 
                TLS Web Server Authentication, TLS Web Client Authentication
            X509v3 Subject Key Identifier: 
                E1:87:D0:C7:33:FA:F4:DF:15:C5:E7:43:E7:BB:81:FB:94:94:94:DC
            X509v3 Authority Key Identifier: 
                keyid:DB:AE:9D:4D:E7:B8:84:A6:E8:E8:2D:1B:AD:73:AE:2C:21:11:E0:2C

            Authority Information Access: 
                CA Issuers - URI:http://example.com/ca/cluster.cer

            X509v3 CRL Distribution Points: 
                URI:http://example.com/ca/cluster.crl

    Signature Algorithm: sha1WithRSAEncryption
        b0:5d:ae:d0:28:19:fb:75:eb:5c:ba:66:23:32:0a:25:83:f6:
        2b:83:49:f6:73:5b:16:0c:6d:fb:6d:4d:d5:06:bd:e4:bb:09:
        21:9d:43:c5:79:a0:f2:9c:49:01:1d:88:8e:89:df:27:21:a5:
        c4:5d:e5:9b:b6:88:22:67:bd:ea:96:ee:e1:90:b3:5f:65:dd:
        40:f8:cc:33:e6:0c:34:63:02:0c:46:d3:33:26:9b:a0:08:16:
        4f:b8:9a:c4:92:18:2b:2e:65:c5:e6:43:cf:fd:b2:f5:81:d6:
        d4:7f:8d:66:92:ab:90:c3:9e:78:76:04:64:75:af:ac:fe:68:
        ff:55:f6:64:59:59:4c:4b:95:ec:6e:65:e9:b6:c0:2c:fa:e5:
        ac:ea:77:62:7b:80:82:48:bf:d9:0f:54:27:64:c9:0c:85:f5:
        d1:c0:ea:92:de:90:77:93:9d:c2:52:81:99:f5:80:83:95:a1:
        14:0f:bc:85:17:bd:09:24:ed:24:ed:8a:39:bc:96:43:b8:af:
        c1:27:7d:45:b3:98:ee:ad:6d:78:6d:2c:36:10:21:8d:93:34:
        57:bc:9e:43:a1:ef:e5:50:14:27:a1:0a:53:80:f5:84:46:3f:
        73:29:02:01:40:60:eb:02:8d:d4:32:17:d2:29:c7:18:51:73:
        96:a3:8a:c7
-----BEGIN CERTIFICATE-----
MIIEIzCCAwugAwIBAgIBBTANBgkqhkiG9w0BAQUFADBrMQswCQYDVQQGEwJTRTEQ
MA4GA1UECgwHRXhhbXBsZTEmMCQGA1UECwwdRXhhbXBsZSBDZXJ0aWZpY2F0ZSBB
dXRob3JpdHkxIjAgBgNVBAMMGUV4YW1wbGUgQ2x1c3RlciBBdXRob3JpdHkwHhcN
MTcwNjIwMDkxNjA5WhcNMjIxMjExMDkxNjA5WjBMMQswCQYDVQQGEwJTRTEQMA4G
A1UECgwHRXhhbXBsZTEYMBYGA1UECwwPRXhhbXBsZSBDbHVzdGVyMREwDwYDVQQD
DAhTZXJ2ZXIgNDCCASIwDQYJKoZIhvcNAQEBBQADggEPADCCAQoCggEBANSzfdaK
5sB5wIFn4WDX0JDFQFnIqRl1RKrXsikCYNUTzU4BvkfQyfzsDfpWKDOMWUQHr/wL
uf/yzP9RVaHRo+kyg+Mo2aFmpiDtGhyl5k8uF5D+kMigbJfeIeRJWVy5/Uj8tBLy
SDQ/I/DKrjUL+f+H6BRwVXL9kdfFc0kpcZIQHyCFfvMrAlfckoS5hIU+iGbTpTzl
ut0IDWtdVgXnsybPQCIfZM5PZsygrNDZHFccDFq4o4RuxM6rp2lLzemelsHEug1n
PT9gvGPUYrZTPK1mzWS83la1m64nhggUU7H/UzMHbnsNRXT5YC4RFr0fZDC+7WT1
dDM9cVZBvu4m9P8CAwEAAaOB8DCB7TAOBgNVHQ8BAf8EBAMCBaAwCQYDVR0TBAIw
ADAdBgNVHSUEFjAUBggrBgEFBQcDAQYIKwYBBQUHAwIwHQYDVR0OBBYEFOGH0Mcz
+vTfFcXnQ+e7gfuUlJTcMB8GA1UdIwQYMBaAFNuunU3nuISm6OgtG61zriwhEeAs
MD0GCCsGAQUFBwEBBDEwLzAtBggrBgEFBQcwAoYhaHR0cDovL2V4YW1wbGUuY29t
L2NhL2NsdXN0ZXIuY2VyMDIGA1UdHwQrMCkwJ6AloCOGIWh0dHA6Ly9leGFtcGxl
LmNvbS9jYS9jbHVzdGVyLmNybDANBgkqhkiG9w0BAQUFAAOCAQEAsF2u0CgZ+3Xr
XLpmIzIKJYP2K4NJ9nNbFgxt+21N1Qa95LsJIZ1DxXmg8pxJAR2IjonfJyGlxF3l
m7aIIme96pbu4ZCzX2XdQPjMM+YMNGMCDEbTMyaboAgWT7iaxJIYKy5lxeZDz/2y
9YHW1H+NZpKrkMOeeHYEZHWvrP5o/1X2ZFlZTEuV7G5l6bbALPrlrOp3YnuAgki/
2Q9UJ2TJDIX10cDqkt6Qd5OdwlKBmfWAg5WhFA+8hRe9CSTtJO2KObyWQ7ivwSd9
RbOY7q1teG0sNhAhjZM0V7yeQ6Hv5VAUJ6EKU4D1hEY/cykCAUBg6wKN1DIX0inH
GFFzlqOKxw==
-----END CERTIFICATE-----
