Certificate:
    Data:
        Version: 3 (0x2)
        Serial Number: 5 (0x5)
    Signature Algorithm: sha1WithRSAEncryption
        Issuer: C=SE, O=Example, OU=Example Certificate Authority, CN=Example Cluster Authority
        Validity
            Not Before: Mar 13 11:43:00 2018 GMT
            Not After : Sep  3 11:43:00 2023 GMT
        Subject: C=SE, O=Example, OU=Example Cluster, CN=Server 4
        Subject Public Key Info:
            Public Key Algorithm: rsaEncryption
                Public-Key: (2048 bit)
                Modulus:
                    00:f6:e6:7b:1a:a7:04:5c:5e:7e:10:4b:de:55:ef:
                    4c:fc:d0:c2:d8:c5:aa:25:6e:3c:5f:a3:51:2d:34:
                    c4:b4:1a:a0:b6:25:bf:49:2d:0c:f7:08:d3:16:d6:
                    f5:51:2e:bc:27:ff:f9:57:ae:a9:89:f9:5e:63:29:
                    f1:df:f2:38:79:c6:6b:9d:74:31:e6:18:d7:a5:cc:
                    63:8b:f1:75:c2:19:fc:4c:06:2f:73:b6:ce:4a:31:
                    d2:c0:1e:55:7d:69:9a:49:6b:90:f4:37:2a:0a:5c:
                    7c:73:12:3a:3f:46:b9:7a:a4:97:e8:58:f8:ef:a9:
                    30:6f:47:e6:5f:73:13:d8:af:89:44:05:3d:c9:97:
                    0c:bd:7b:38:7d:62:f2:94:17:6f:58:69:80:b5:09:
                    22:f4:8f:2e:cb:f5:d5:d8:4a:45:6f:6a:46:5c:0f:
                    b6:e4:a1:56:2c:ce:b8:a2:d7:0b:54:2c:bb:e0:8d:
                    b4:d8:b5:40:00:6e:70:91:e0:8a:76:41:7c:59:87:
                    f4:ba:3a:26:31:85:f6:f8:a3:cf:70:b7:1b:ae:3b:
                    da:5f:8f:51:56:3f:71:06:a5:3c:72:72:ae:22:cb:
                    e7:e5:f5:04:b5:76:0a:11:7c:d6:a6:ab:39:b8:bc:
                    db:2f:6e:e0:4f:bf:95:50:bf:cd:0e:c7:61:8f:b7:
                    9b:3d
                Exponent: 65537 (0x10001)
        X509v3 extensions:
            X509v3 Key Usage: critical
                Digital Signature, Key Encipherment
            X509v3 Basic Constraints: 
                CA:FALSE
            X509v3 Extended Key Usage: 
                TLS Web Server Authentication, TLS Web Client Authentication
            X509v3 Subject Key Identifier: 
                71:EC:C7:58:D7:BD:21:B8:38:23:34:7A:E0:0A:BD:08:07:6F:74:A7
            X509v3 Authority Key Identifier: 
                keyid:D0:17:85:14:AC:81:1D:29:A4:75:73:01:87:5C:40:D2:84:68:3D:4F

            Authority Information Access: 
                CA Issuers - URI:http://example.com/ca/cluster.cer

            X509v3 CRL Distribution Points: 

                Full Name:
                  URI:http://example.com/ca/cluster.crl

    Signature Algorithm: sha1WithRSAEncryption
         6b:ed:c5:0d:c0:ec:47:03:7a:8c:0d:3a:a6:cf:99:b4:cc:77:
         45:2c:50:64:73:5a:57:cd:02:44:74:a9:3e:47:b1:d3:7e:fd:
         b5:ea:5f:f1:30:7b:16:a2:10:99:11:48:97:83:71:81:77:33:
         34:f4:00:07:ce:40:5b:57:d4:d5:23:2a:9f:02:b5:5e:d8:0a:
         6d:39:d9:84:94:22:6a:97:1f:b0:f7:0d:47:45:99:54:7e:06:
         cb:58:ce:91:93:74:c8:38:4c:32:9e:62:48:76:51:9d:43:27:
         ae:03:67:44:1c:8a:ae:5a:55:b9:75:b4:79:7c:1b:41:b0:34:
         a6:0e:fc:4b:ec:4e:58:be:cb:32:ac:1b:9c:ea:8d:98:a2:c6:
         07:84:90:1b:2b:c7:bf:c1:d3:20:5a:84:ad:43:87:0c:c1:14:
         89:fd:97:09:de:50:7c:5f:af:d6:5e:9b:5f:68:94:75:16:b2:
         97:85:17:d9:62:11:92:2e:e8:26:f4:09:9f:f3:17:60:63:b6:
         62:5c:b1:5d:96:b6:57:12:eb:10:86:b3:48:0b:7a:b4:7f:c2:
         d0:db:e7:f6:6b:36:6f:a4:00:9d:12:bb:93:6a:4b:f5:28:69:
         c0:6f:d8:8c:c4:bf:2a:e9:c0:a3:d1:df:b9:8a:e6:75:e4:f6:
         dc:19:70:6c
-----BEGIN CERTIFICATE-----
MIIEIzCCAwugAwIBAgIBBTANBgkqhkiG9w0BAQUFADBrMQswCQYDVQQGEwJTRTEQ
MA4GA1UECgwHRXhhbXBsZTEmMCQGA1UECwwdRXhhbXBsZSBDZXJ0aWZpY2F0ZSBB
dXRob3JpdHkxIjAgBgNVBAMMGUV4YW1wbGUgQ2x1c3RlciBBdXRob3JpdHkwHhcN
MTgwMzEzMTE0MzAwWhcNMjMwOTAzMTE0MzAwWjBMMQswCQYDVQQGEwJTRTEQMA4G
A1UECgwHRXhhbXBsZTEYMBYGA1UECwwPRXhhbXBsZSBDbHVzdGVyMREwDwYDVQQD
DAhTZXJ2ZXIgNDCCASIwDQYJKoZIhvcNAQEBBQADggEPADCCAQoCggEBAPbmexqn
BFxefhBL3lXvTPzQwtjFqiVuPF+jUS00xLQaoLYlv0ktDPcI0xbW9VEuvCf/+Veu
qYn5XmMp8d/yOHnGa510MeYY16XMY4vxdcIZ/EwGL3O2zkox0sAeVX1pmklrkPQ3
KgpcfHMSOj9GuXqkl+hY+O+pMG9H5l9zE9iviUQFPcmXDL17OH1i8pQXb1hpgLUJ
IvSPLsv11dhKRW9qRlwPtuShVizOuKLXC1Qsu+CNtNi1QABucJHginZBfFmH9Lo6
JjGF9vijz3C3G6472l+PUVY/cQalPHJyriLL5+X1BLV2ChF81qarObi82y9u4E+/
lVC/zQ7HYY+3mz0CAwEAAaOB8DCB7TAOBgNVHQ8BAf8EBAMCBaAwCQYDVR0TBAIw
ADAdBgNVHSUEFjAUBggrBgEFBQcDAQYIKwYBBQUHAwIwHQYDVR0OBBYEFHHsx1jX
vSG4OCM0euAKvQgHb3SnMB8GA1UdIwQYMBaAFNAXhRSsgR0ppHVzAYdcQNKEaD1P
MD0GCCsGAQUFBwEBBDEwLzAtBggrBgEFBQcwAoYhaHR0cDovL2V4YW1wbGUuY29t
L2NhL2NsdXN0ZXIuY2VyMDIGA1UdHwQrMCkwJ6AloCOGIWh0dHA6Ly9leGFtcGxl
LmNvbS9jYS9jbHVzdGVyLmNybDANBgkqhkiG9w0BAQUFAAOCAQEAa+3FDcDsRwN6
jA06ps+ZtMx3RSxQZHNaV80CRHSpPkex0379tepf8TB7FqIQmRFIl4NxgXczNPQA
B85AW1fU1SMqnwK1XtgKbTnZhJQiapcfsPcNR0WZVH4Gy1jOkZN0yDhMMp5iSHZR
nUMnrgNnRByKrlpVuXW0eXwbQbA0pg78S+xOWL7LMqwbnOqNmKLGB4SQGyvHv8HT
IFqErUOHDMEUif2XCd5QfF+v1l6bX2iUdRayl4UX2WIRki7oJvQJn/MXYGO2Ylyx
XZa2VxLrEIazSAt6tH/C0Nvn9ms2b6QAnRK7k2pL9ShpwG/YjMS/KunAo9HfuYrm
deT23BlwbA==
-----END CERTIFICATE-----
