Certificate:
    Data:
        Version: 3 (0x2)
        Serial Number: 6 (0x6)
    Signature Algorithm: sha1WithRSAEncryption
        Issuer: C=SE, O=Example, OU=Example Certificate Authority, CN=Example Cluster Authority
        Validity
            Not Before: Jul  9 14:29:07 2018 GMT
            Not After : Dec 30 14:29:07 2023 GMT
        Subject: C=SE, O=Example, OU=Example Cluster, CN=Server 5
        Subject Public Key Info:
            Public Key Algorithm: rsaEncryption
                Public-Key: (2048 bit)
                Modulus:
                    00:a0:d2:24:c2:86:3f:07:45:ab:c5:cb:fd:41:93:
                    c5:ae:11:19:a8:ba:fe:ba:e8:87:5d:b7:ad:93:5d:
                    fc:e2:10:76:62:03:0b:cf:06:90:44:76:ff:c6:3f:
                    62:74:7a:a0:cd:a9:fb:0e:1e:d0:94:1b:5f:a4:e2:
                    55:ee:f8:14:81:78:a1:ad:c6:a4:8c:d7:91:ac:23:
                    39:3a:e9:da:50:4f:49:00:37:4e:c1:3b:55:32:85:
                    f0:35:db:6e:39:d4:b7:bd:a6:0a:2c:8a:9b:e4:9b:
                    ce:7a:ea:3a:df:a2:d1:51:56:33:37:01:3f:55:cc:
                    d6:15:7b:7d:26:fd:43:43:53:8d:f4:1c:80:76:78:
                    c7:41:71:00:6f:05:33:51:5d:f2:91:cf:5d:56:72:
                    04:e5:64:ab:25:b2:b1:e4:77:7d:31:7d:53:e6:a7:
                    2a:26:2f:c4:39:51:b7:99:30:61:3d:45:65:f4:2f:
                    4d:65:36:e9:26:25:46:98:33:70:ae:59:9a:50:9a:
                    c9:d8:f9:ab:08:87:37:b7:6d:1b:7f:b9:0b:0b:37:
                    30:eb:66:a0:e2:d5:47:b6:67:c1:3d:01:37:46:ce:
                    ee:2e:bf:8c:bd:12:1c:cc:b9:3e:5b:bd:72:ae:16:
                    77:8f:0e:b1:d5:e3:3b:73:4c:2d:31:6f:b2:e9:d8:
                    f5:17
                Exponent: 65537 (0x10001)
        X509v3 extensions:
            X509v3 Key Usage: critical
                Digital Signature, Key Encipherment
            X509v3 Basic Constraints: 
                CA:FALSE
            X509v3 Extended Key Usage: 
                TLS Web Server Authentication, TLS Web Client Authentication
            X509v3 Subject Key Identifier: 
                9C:2C:C3:AD:B2:7E:00:63:03:E4:66:2A:2C:A8:66:67:9C:74:E1:B9
            X509v3 Authority Key Identifier: 
                keyid:BD:CD:52:9A:5A:3D:8A:10:85:DF:95:56:63:EE:2B:3A:74:74:E4:33

            Authority Information Access: 
                CA Issuers - URI:http://example.com/ca/cluster.cer

            X509v3 CRL Distribution Points: 

                Full Name:
                  URI:http://example.com/ca/cluster.crl

            X509v3 Subject Alternative Name: 
                DNS:localhost
    Signature Algorithm: sha1WithRSAEncryption
         97:0c:25:36:b9:a2:0d:a4:04:49:f4:d2:91:ae:1e:8b:43:a0:
         ff:d5:66:fa:3d:e0:9e:1a:b4:14:40:e2:5e:c9:55:66:c2:69:
         4d:38:1e:2a:b2:23:fb:1c:a5:57:18:ce:cd:09:c8:9a:90:d8:
         9c:9e:0e:2a:a6:85:8c:09:41:8a:1b:56:12:c5:2b:2d:06:2d:
         9a:9c:dc:a5:c7:72:b4:42:8d:2f:d0:f8:6a:8e:de:da:19:c5:
         d0:85:a8:a5:4c:d2:3d:0f:6c:ba:05:81:b2:3c:ab:c3:d0:d0:
         4e:1b:58:3c:76:1e:e9:38:c9:6a:3b:b0:97:8a:31:ca:d7:56:
         74:7c:8e:35:c2:26:1e:64:e8:63:17:f1:b3:f9:b6:49:c8:2d:
         e3:82:e8:47:53:e0:ca:cf:02:5e:39:c0:4a:9e:fb:a4:10:0e:
         45:47:71:ba:25:8a:e5:70:78:d1:05:f4:72:53:da:73:67:44:
         ab:4d:5f:9c:21:7c:39:90:0a:80:f1:27:f9:67:8a:e3:45:1a:
         01:51:4d:8d:eb:cf:a3:fc:e0:71:d4:fb:ed:ea:58:02:d5:82:
         d9:a4:f4:db:1b:02:04:46:d2:84:9d:54:d4:a1:fc:bd:c4:8a:
         c1:f5:33:35:bf:ef:27:73:5e:c3:cf:5e:e2:d8:f8:ae:17:c0:
         a5:d5:c1:81
-----BEGIN CERTIFICATE-----
MIIEOzCCAyOgAwIBAgIBBjANBgkqhkiG9w0BAQUFADBrMQswCQYDVQQGEwJTRTEQ
MA4GA1UECgwHRXhhbXBsZTEmMCQGA1UECwwdRXhhbXBsZSBDZXJ0aWZpY2F0ZSBB
dXRob3JpdHkxIjAgBgNVBAMMGUV4YW1wbGUgQ2x1c3RlciBBdXRob3JpdHkwHhcN
MTgwNzA5MTQyOTA3WhcNMjMxMjMwMTQyOTA3WjBMMQswCQYDVQQGEwJTRTEQMA4G
A1UECgwHRXhhbXBsZTEYMBYGA1UECwwPRXhhbXBsZSBDbHVzdGVyMREwDwYDVQQD
DAhTZXJ2ZXIgNTCCASIwDQYJKoZIhvcNAQEBBQADggEPADCCAQoCggEBAKDSJMKG
PwdFq8XL/UGTxa4RGai6/rroh123rZNd/OIQdmIDC88GkER2/8Y/YnR6oM2p+w4e
0JQbX6TiVe74FIF4oa3GpIzXkawjOTrp2lBPSQA3TsE7VTKF8DXbbjnUt72mCiyK
m+SbznrqOt+i0VFWMzcBP1XM1hV7fSb9Q0NTjfQcgHZ4x0FxAG8FM1Fd8pHPXVZy
BOVkqyWyseR3fTF9U+anKiYvxDlRt5kwYT1FZfQvTWU26SYlRpgzcK5ZmlCaydj5
qwiHN7dtG3+5Cws3MOtmoOLVR7ZnwT0BN0bO7i6/jL0SHMy5Plu9cq4Wd48OsdXj
O3NMLTFvsunY9RcCAwEAAaOCAQcwggEDMA4GA1UdDwEB/wQEAwIFoDAJBgNVHRME
AjAAMB0GA1UdJQQWMBQGCCsGAQUFBwMBBggrBgEFBQcDAjAdBgNVHQ4EFgQUnCzD
rbJ+AGMD5GYqLKhmZ5x04bkwHwYDVR0jBBgwFoAUvc1Smlo9ihCF35VWY+4rOnR0
5DMwPQYIKwYBBQUHAQEEMTAvMC0GCCsGAQUFBzAChiFodHRwOi8vZXhhbXBsZS5j
b20vY2EvY2x1c3Rlci5jZXIwMgYDVR0fBCswKTAnoCWgI4YhaHR0cDovL2V4YW1w
bGUuY29tL2NhL2NsdXN0ZXIuY3JsMBQGA1UdEQQNMAuCCWxvY2FsaG9zdDANBgkq
hkiG9w0BAQUFAAOCAQEAlwwlNrmiDaQESfTSka4ei0Og/9Vm+j3gnhq0FEDiXslV
ZsJpTTgeKrIj+xylVxjOzQnImpDYnJ4OKqaFjAlBihtWEsUrLQYtmpzcpcdytEKN
L9D4ao7e2hnF0IWopUzSPQ9sugWBsjyrw9DQThtYPHYe6TjJajuwl4oxytdWdHyO
NcImHmToYxfxs/m2Scgt44LoR1Pgys8CXjnASp77pBAORUdxuiWK5XB40QX0clPa
c2dEq01fnCF8OZAKgPEn+WeK40UaAVFNjevPo/zgcdT77epYAtWC2aT02xsCBEbS
hJ1U1KH8vcSKwfUzNb/vJ3New89e4tj4rhfApdXBgQ==
-----END CERTIFICATE-----
