Certificate:
    Data:
        Version: 3 (0x2)
        Serial Number: 6 (0x6)
        Signature Algorithm: sha1WithRSAEncryption
        Issuer: C=SE, O=Example, OU=Example Certificate Authority, CN=Example Cluster Authority
        Validity
            Not Before: Jun 20 09:16:10 2017 GMT
            Not After : Dec 11 09:16:10 2022 GMT
        Subject: C=SE, O=Example, OU=Example Cluster, CN=Server 5
        Subject Public Key Info:
            Public Key Algorithm: rsaEncryption
            RSA Public Key: (2048 bit)
                Modulus (2048 bit):
                    00:e8:36:a9:31:95:eb:34:c5:ce:2a:43:b4:16:03:
                    e3:43:3d:7d:75:69:c5:22:81:89:17:21:bf:6f:b1:
                    1f:05:56:b9:a6:33:cc:4d:e9:40:da:3d:0d:21:47:
                    9b:7d:d1:77:7d:ed:18:d1:6d:2a:9d:29:1a:56:db:
                    ac:6b:60:06:6c:97:98:ba:06:a6:12:96:bf:f9:c6:
                    76:3b:3c:61:43:47:b3:c0:24:a7:6d:9f:3a:4c:76:
                    ec:6f:95:81:a7:cb:7b:33:c7:b8:89:1a:3d:b0:9d:
                    ce:88:f5:11:86:fb:ac:5f:fb:76:74:bd:34:33:86:
                    51:75:bc:d9:0c:c3:8e:dc:18:64:4e:8c:08:ff:b9:
                    01:58:fa:a7:db:01:fb:b2:dd:d5:9f:b0:ca:81:3f:
                    c3:48:c8:c5:04:42:5e:bf:32:b4:3e:f7:7c:0f:1d:
                    8d:33:1f:2b:3e:c8:9d:22:c2:e1:7d:de:a2:ac:09:
                    57:c0:f9:4d:ad:15:09:b1:6c:09:b0:47:48:4d:e7:
                    24:1e:ed:f4:ee:1d:af:e4:24:19:a5:40:bc:de:96:
                    11:42:bb:54:ca:35:d5:00:38:f5:4c:69:1a:76:a1:
                    9f:8d:db:12:a5:2e:33:6b:0b:37:0c:11:b8:fa:f6:
                    b5:ff:7f:1d:f2:ad:61:40:b7:fe:8a:03:82:d8:41:
                    b6:9b
                Exponent: 65537 (0x10001)
        X509v3 extensions:
            X509v3 Key Usage: critical
                Digital Signature, Key Encipherment
            X509v3 Basic Constraints: 
                CA:FALSE
            X509v3 Extended Key Usage: 
                TLS Web Server Authentication, TLS Web Client Authentication
            X509v3 Subject Key Identifier: 
                D3:DC:5E:94:C8:BD:23:3E:66:A9:99:52:47:0C:E9:41:B6:5F:C9:D5
            X509v3 Authority Key Identifier: 
                keyid:DB:AE:9D:4D:E7:B8:84:A6:E8:E8:2D:1B:AD:73:AE:2C:21:11:E0:2C

            Authority Information Access: 
                CA Issuers - URI:http://example.com/ca/cluster.cer

            X509v3 CRL Distribution Points: 
                URI:http://example.com/ca/cluster.crl

    Signature Algorithm: sha1WithRSAEncryption
        6f:57:56:c7:a7:b6:4e:0d:d2:ce:cb:83:89:fa:b2:7a:81:a4:
        fa:03:0e:a8:a4:ff:d5:dc:9a:9c:32:f3:b8:41:f3:0a:8d:e1:
        ee:d5:04:06:b6:cd:b6:10:93:45:fd:28:a9:71:f4:51:75:9d:
        61:bc:22:28:7b:c4:1c:b1:3f:69:85:bb:4a:54:56:23:1c:0f:
        b3:ab:17:72:d6:5e:cb:e3:36:4c:4d:d6:40:f1:d0:14:a7:1c:
        79:33:fb:da:3e:7c:a1:80:c8:b2:77:87:aa:d7:7c:4d:88:da:
        e1:ff:fe:13:4e:78:18:b0:bb:85:24:db:73:27:86:38:f6:91:
        bd:07:50:7c:81:8d:7d:03:df:6f:3c:c0:5c:a7:e6:09:a2:f3:
        76:9c:0a:98:c0:b1:52:6a:56:d9:8f:81:65:2a:15:0f:0a:02:
        5b:e7:00:e2:a8:7a:9e:d4:d6:03:6c:b2:d1:81:84:1c:44:a1:
        2a:c9:c9:8e:2f:2c:7d:22:7e:06:94:40:d6:a1:36:b6:58:29:
        ed:43:60:cf:98:5d:82:62:9f:5d:4a:7f:cb:48:91:fc:f5:f9:
        5a:da:9f:78:75:53:02:a9:ea:5f:1b:ad:0c:73:71:79:b0:42:
        39:3c:e1:43:a6:70:85:0d:b7:b6:35:b1:47:18:47:e3:70:9f:
        36:4f:60:fd
-----BEGIN CERTIFICATE-----
MIIEIzCCAwugAwIBAgIBBjANBgkqhkiG9w0BAQUFADBrMQswCQYDVQQGEwJTRTEQ
MA4GA1UECgwHRXhhbXBsZTEmMCQGA1UECwwdRXhhbXBsZSBDZXJ0aWZpY2F0ZSBB
dXRob3JpdHkxIjAgBgNVBAMMGUV4YW1wbGUgQ2x1c3RlciBBdXRob3JpdHkwHhcN
MTcwNjIwMDkxNjEwWhcNMjIxMjExMDkxNjEwWjBMMQswCQYDVQQGEwJTRTEQMA4G
A1UECgwHRXhhbXBsZTEYMBYGA1UECwwPRXhhbXBsZSBDbHVzdGVyMREwDwYDVQQD
DAhTZXJ2ZXIgNTCCASIwDQYJKoZIhvcNAQEBBQADggEPADCCAQoCggEBAOg2qTGV
6zTFzipDtBYD40M9fXVpxSKBiRchv2+xHwVWuaYzzE3pQNo9DSFHm33Rd33tGNFt
Kp0pGlbbrGtgBmyXmLoGphKWv/nGdjs8YUNHs8Akp22fOkx27G+VgafLezPHuIka
PbCdzoj1EYb7rF/7dnS9NDOGUXW82QzDjtwYZE6MCP+5AVj6p9sB+7Ld1Z+wyoE/
w0jIxQRCXr8ytD73fA8djTMfKz7InSLC4X3eoqwJV8D5Ta0VCbFsCbBHSE3nJB7t
9O4dr+QkGaVAvN6WEUK7VMo11QA49UxpGnahn43bEqUuM2sLNwwRuPr2tf9/HfKt
YUC3/ooDgthBtpsCAwEAAaOB8DCB7TAOBgNVHQ8BAf8EBAMCBaAwCQYDVR0TBAIw
ADAdBgNVHSUEFjAUBggrBgEFBQcDAQYIKwYBBQUHAwIwHQYDVR0OBBYEFNPcXpTI
vSM+ZqmZUkcM6UG2X8nVMB8GA1UdIwQYMBaAFNuunU3nuISm6OgtG61zriwhEeAs
MD0GCCsGAQUFBwEBBDEwLzAtBggrBgEFBQcwAoYhaHR0cDovL2V4YW1wbGUuY29t
L2NhL2NsdXN0ZXIuY2VyMDIGA1UdHwQrMCkwJ6AloCOGIWh0dHA6Ly9leGFtcGxl
LmNvbS9jYS9jbHVzdGVyLmNybDANBgkqhkiG9w0BAQUFAAOCAQEAb1dWx6e2Tg3S
zsuDifqyeoGk+gMOqKT/1dyanDLzuEHzCo3h7tUEBrbNthCTRf0oqXH0UXWdYbwi
KHvEHLE/aYW7SlRWIxwPs6sXctZey+M2TE3WQPHQFKcceTP72j58oYDIsneHqtd8
TYja4f/+E054GLC7hSTbcyeGOPaRvQdQfIGNfQPfbzzAXKfmCaLzdpwKmMCxUmpW
2Y+BZSoVDwoCW+cA4qh6ntTWA2yy0YGEHEShKsnJji8sfSJ+BpRA1qE2tlgp7UNg
z5hdgmKfXUp/y0iR/PX5WtqfeHVTAqnqXxutDHNxebBCOTzhQ6ZwhQ23tjWxRxhH
43CfNk9g/Q==
-----END CERTIFICATE-----
