Certificate:
    Data:
        Version: 3 (0x2)
        Serial Number: 6 (0x6)
        Signature Algorithm: sha256WithRSAEncryption
        Issuer: C=SE, O=Example, OU=Example Certificate Authority, CN=Example Cluster Authority
        Validity
            Not Before: Nov 26 11:09:47 2021 GMT
            Not After : May 19 11:09:47 2027 GMT
        Subject: C=SE, O=Example, OU=Example Cluster, CN=Server 5
        Subject Public Key Info:
            Public Key Algorithm: rsaEncryption
                RSA Public-Key: (2048 bit)
                Modulus:
                    00:e2:57:90:1b:9c:f0:88:f6:9a:cc:96:e7:98:30:
                    de:f6:bc:f3:62:11:04:16:0c:d9:3f:1c:d6:7b:86:
                    27:d3:ba:cd:88:cb:db:c3:a8:ba:e6:d5:79:bf:c7:
                    c5:8f:7c:58:2d:27:aa:cc:99:71:90:41:7f:aa:d0:
                    ee:f5:e9:73:d8:3f:99:39:39:f0:39:fa:18:2e:9b:
                    1e:f7:07:25:8e:a2:0f:c4:23:5f:42:4d:f3:2f:82:
                    c4:fc:04:be:5c:d7:31:fd:85:ba:46:7f:d4:41:ba:
                    dd:c3:ed:0e:28:13:2b:71:ea:af:bd:92:bb:0f:ce:
                    69:b5:42:b1:4f:62:a5:f8:6e:e6:00:d8:05:ae:54:
                    9c:86:e1:1b:52:5c:4e:59:2d:95:da:04:99:60:9b:
                    23:91:04:fe:c6:b7:58:94:6c:d1:be:b9:ce:d5:a4:
                    70:33:94:fb:fb:41:93:fd:09:4f:34:69:a7:2d:6f:
                    e2:cc:17:ae:26:31:10:a4:87:1e:04:d9:e0:cc:58:
                    7c:67:d3:1d:6e:a2:5b:a5:c5:f3:35:06:70:b7:f5:
                    bf:d7:6c:52:0b:9c:8b:d4:ca:ad:2e:a3:e1:38:30:
                    e0:b9:05:ed:10:62:bc:03:23:b4:be:ea:20:59:ec:
                    0d:0c:74:36:7f:d3:f4:83:d5:00:7e:aa:40:b8:21:
                    91:b1
                Exponent: 65537 (0x10001)
        X509v3 extensions:
            X509v3 Key Usage: critical
                Digital Signature, Key Encipherment
            X509v3 Basic Constraints: 
                CA:FALSE
            X509v3 Extended Key Usage: 
                TLS Web Server Authentication, TLS Web Client Authentication
            X509v3 Subject Key Identifier: 
                E4:7B:64:80:A6:5E:CF:82:88:C0:91:CE:8A:D3:6A:05:BE:DA:24:46
            X509v3 Authority Key Identifier: 
                keyid:83:BA:16:EC:04:23:A7:40:34:8B:A0:3A:35:ED:CE:B6:E8:95:8E:2D

            Authority Information Access: 
                CA Issuers - URI:http://example.com/ca/cluster.cer

            X509v3 CRL Distribution Points: 

                Full Name:
                  URI:http://example.com/ca/cluster.crl

            X509v3 Subject Alternative Name: 
                DNS:localhost
    Signature Algorithm: sha256WithRSAEncryption
         89:d4:f2:1a:cf:12:62:77:19:21:1e:26:bc:c3:3e:69:37:48:
         b2:56:b5:8d:11:7a:e8:45:4e:ad:9b:df:fe:77:8c:cc:91:73:
         0b:db:7e:66:0a:42:fe:d1:2d:b4:07:53:af:87:d8:a2:e4:33:
         62:77:55:b4:62:21:71:85:29:71:8b:bf:a3:ba:df:f7:15:d7:
         a4:81:5c:d8:84:62:d6:31:a0:4d:f2:55:fb:2c:91:ef:63:aa:
         f2:26:30:4e:ca:98:2f:03:de:f0:12:a6:b7:1c:f2:6e:e1:ed:
         1f:c9:d5:12:60:1d:90:54:b4:3f:89:0f:0c:0a:31:2a:b6:6c:
         ef:4a:79:96:cd:d8:55:3e:c2:91:78:e6:1b:3d:44:5f:c7:60:
         13:e1:50:37:a1:4e:7c:2e:46:f7:33:b5:69:42:42:f8:bf:ba:
         3a:01:fa:d4:97:22:0a:d7:9b:68:53:b6:59:2c:66:f3:b7:07:
         45:6b:ce:55:77:16:4d:91:68:ef:69:d3:54:6d:cd:6f:8e:bb:
         c7:d4:b5:87:ae:09:6a:5f:44:d8:ce:5e:5e:f0:66:4d:75:09:
         b0:a1:dd:d2:f2:ed:ca:50:fb:a2:2f:ed:bf:57:b6:16:12:f6:
         ea:cf:7e:6b:0c:92:28:84:eb:b6:c2:07:f7:39:6d:df:84:af:
         fb:06:95:97
-----BEGIN CERTIFICATE-----
MIIEOzCCAyOgAwIBAgIBBjANBgkqhkiG9w0BAQsFADBrMQswCQYDVQQGEwJTRTEQ
MA4GA1UECgwHRXhhbXBsZTEmMCQGA1UECwwdRXhhbXBsZSBDZXJ0aWZpY2F0ZSBB
dXRob3JpdHkxIjAgBgNVBAMMGUV4YW1wbGUgQ2x1c3RlciBBdXRob3JpdHkwHhcN
MjExMTI2MTEwOTQ3WhcNMjcwNTE5MTEwOTQ3WjBMMQswCQYDVQQGEwJTRTEQMA4G
A1UECgwHRXhhbXBsZTEYMBYGA1UECwwPRXhhbXBsZSBDbHVzdGVyMREwDwYDVQQD
DAhTZXJ2ZXIgNTCCASIwDQYJKoZIhvcNAQEBBQADggEPADCCAQoCggEBAOJXkBuc
8Ij2msyW55gw3va882IRBBYM2T8c1nuGJ9O6zYjL28OouubVeb/HxY98WC0nqsyZ
cZBBf6rQ7vXpc9g/mTk58Dn6GC6bHvcHJY6iD8QjX0JN8y+CxPwEvlzXMf2FukZ/
1EG63cPtDigTK3Hqr72Suw/OabVCsU9ipfhu5gDYBa5UnIbhG1JcTlktldoEmWCb
I5EE/sa3WJRs0b65ztWkcDOU+/tBk/0JTzRppy1v4swXriYxEKSHHgTZ4MxYfGfT
HW6iW6XF8zUGcLf1v9dsUguci9TKrS6j4Tgw4LkF7RBivAMjtL7qIFnsDQx0Nn/T
9IPVAH6qQLghkbECAwEAAaOCAQcwggEDMA4GA1UdDwEB/wQEAwIFoDAJBgNVHRME
AjAAMB0GA1UdJQQWMBQGCCsGAQUFBwMBBggrBgEFBQcDAjAdBgNVHQ4EFgQU5Htk
gKZez4KIwJHOitNqBb7aJEYwHwYDVR0jBBgwFoAUg7oW7AQjp0A0i6A6Ne3OtuiV
ji0wPQYIKwYBBQUHAQEEMTAvMC0GCCsGAQUFBzAChiFodHRwOi8vZXhhbXBsZS5j
b20vY2EvY2x1c3Rlci5jZXIwMgYDVR0fBCswKTAnoCWgI4YhaHR0cDovL2V4YW1w
bGUuY29tL2NhL2NsdXN0ZXIuY3JsMBQGA1UdEQQNMAuCCWxvY2FsaG9zdDANBgkq
hkiG9w0BAQsFAAOCAQEAidTyGs8SYncZIR4mvMM+aTdIsla1jRF66EVOrZvf/neM
zJFzC9t+ZgpC/tEttAdTr4fYouQzYndVtGIhcYUpcYu/o7rf9xXXpIFc2IRi1jGg
TfJV+yyR72Oq8iYwTsqYLwPe8BKmtxzybuHtH8nVEmAdkFS0P4kPDAoxKrZs70p5
ls3YVT7CkXjmGz1EX8dgE+FQN6FOfC5G9zO1aUJC+L+6OgH61JciCtebaFO2WSxm
87cHRWvOVXcWTZFo72nTVG3Nb467x9S1h64Jal9E2M5eXvBmTXUJsKHd0vLtylD7
oi/tv1e2FhL26s9+awySKITrtsIH9zlt34Sv+waVlw==
-----END CERTIFICATE-----
