Certificate:
    Data:
        Version: 3 (0x2)
        Serial Number: 6 (0x6)
    Signature Algorithm: sha1WithRSAEncryption
        Issuer: C=SE, O=Example, OU=Example Certificate Authority, CN=Example Cluster Authority
        Validity
            Not Before: Mar 13 11:43:00 2018 GMT
            Not After : Sep  3 11:43:00 2023 GMT
        Subject: C=SE, O=Example, OU=Example Cluster, CN=Server 5
        Subject Public Key Info:
            Public Key Algorithm: rsaEncryption
                Public-Key: (2048 bit)
                Modulus:
                    00:aa:cf:b6:a3:c0:f3:28:d4:e0:64:d6:55:7a:1e:
                    67:0c:44:39:f7:ff:4d:4b:d2:29:6e:be:6e:d6:c2:
                    b1:8b:f1:34:62:12:3a:12:af:38:01:d2:df:f3:d7:
                    36:af:b8:17:25:7a:92:b2:d4:58:a4:82:44:67:71:
                    30:a5:95:f3:45:32:ab:1e:95:60:4a:6f:19:f1:aa:
                    4c:05:15:90:87:67:24:93:30:34:ec:d2:9b:14:4e:
                    ed:f0:fb:93:0a:84:59:cc:f8:31:ae:64:7f:9c:84:
                    f2:0b:2c:48:8b:84:c9:86:9d:dc:c3:b7:48:2c:6e:
                    00:b9:5b:bb:72:41:1a:bf:e2:38:61:c1:69:e8:e2:
                    e5:87:58:ca:e7:01:d8:1b:54:2d:bc:cd:36:0c:ff:
                    55:31:98:f6:84:41:bf:8f:27:03:88:b2:cc:b0:3e:
                    a3:26:c9:af:c5:1c:43:8b:41:92:a1:22:ad:75:ff:
                    46:87:35:41:9f:9a:92:5d:71:04:54:e5:35:c0:b7:
                    9b:6a:be:fa:44:dc:fb:b3:a0:10:a1:b8:72:d9:a4:
                    65:08:09:15:55:1e:8c:ee:75:7b:15:1b:7e:d9:2f:
                    7a:cb:fd:06:86:51:68:cd:ec:13:f9:20:19:a2:70:
                    d4:cb:49:bb:1a:1b:ea:d2:76:28:0f:b1:25:aa:cb:
                    20:99
                Exponent: 65537 (0x10001)
        X509v3 extensions:
            X509v3 Key Usage: critical
                Digital Signature, Key Encipherment
            X509v3 Basic Constraints: 
                CA:FALSE
            X509v3 Extended Key Usage: 
                TLS Web Server Authentication, TLS Web Client Authentication
            X509v3 Subject Key Identifier: 
                A0:C7:D7:FB:8C:83:02:E8:F5:00:A0:1B:5E:CD:3D:65:7E:68:D0:10
            X509v3 Authority Key Identifier: 
                keyid:D0:17:85:14:AC:81:1D:29:A4:75:73:01:87:5C:40:D2:84:68:3D:4F

            Authority Information Access: 
                CA Issuers - URI:http://example.com/ca/cluster.cer

            X509v3 CRL Distribution Points: 

                Full Name:
                  URI:http://example.com/ca/cluster.crl

    Signature Algorithm: sha1WithRSAEncryption
         84:f9:a9:bb:83:c6:97:d1:37:33:8e:a3:65:96:5c:1c:37:79:
         2d:81:4a:87:58:72:5b:1d:21:7d:cd:07:2a:80:12:04:e4:26:
         b0:b6:8c:5a:57:2d:e9:74:2e:c1:4e:1d:e1:53:6d:c2:1b:38:
         67:91:d2:f6:46:b2:81:8c:39:66:cd:da:9d:a7:bc:8c:67:57:
         a0:66:da:fb:cc:d5:68:49:b8:f8:8c:af:1b:9a:0e:da:cb:24:
         4c:54:84:2b:1c:9d:cf:c9:26:fe:78:33:a2:32:64:65:65:99:
         6c:bb:07:bd:7a:50:07:1c:bc:c8:cc:0a:4e:3e:72:89:5e:6c:
         74:22:fd:ef:68:2f:2a:1a:00:1e:06:fd:ad:be:84:cb:12:01:
         8d:9f:7e:f3:03:c7:d6:c3:ae:74:37:2b:e2:ed:92:5d:d8:6f:
         77:a9:e6:a6:ba:9b:80:bf:36:10:4e:be:dd:c1:76:33:3e:bc:
         39:63:60:e8:55:08:b6:1c:40:5f:21:73:aa:bf:75:dd:0c:3b:
         82:68:fc:56:05:04:a1:55:5f:7b:d6:05:e8:7b:b1:5e:8e:8d:
         22:cd:93:7f:c0:35:cc:21:5d:b4:bf:ea:1b:fb:a8:3a:6c:7e:
         6f:3d:3f:b9:c5:3d:92:c1:99:84:15:41:51:cb:ae:bd:1f:6c:
         57:a7:17:c9
-----BEGIN CERTIFICATE-----
MIIEIzCCAwugAwIBAgIBBjANBgkqhkiG9w0BAQUFADBrMQswCQYDVQQGEwJTRTEQ
MA4GA1UECgwHRXhhbXBsZTEmMCQGA1UECwwdRXhhbXBsZSBDZXJ0aWZpY2F0ZSBB
dXRob3JpdHkxIjAgBgNVBAMMGUV4YW1wbGUgQ2x1c3RlciBBdXRob3JpdHkwHhcN
MTgwMzEzMTE0MzAwWhcNMjMwOTAzMTE0MzAwWjBMMQswCQYDVQQGEwJTRTEQMA4G
A1UECgwHRXhhbXBsZTEYMBYGA1UECwwPRXhhbXBsZSBDbHVzdGVyMREwDwYDVQQD
DAhTZXJ2ZXIgNTCCASIwDQYJKoZIhvcNAQEBBQADggEPADCCAQoCggEBAKrPtqPA
8yjU4GTWVXoeZwxEOff/TUvSKW6+btbCsYvxNGISOhKvOAHS3/PXNq+4FyV6krLU
WKSCRGdxMKWV80Uyqx6VYEpvGfGqTAUVkIdnJJMwNOzSmxRO7fD7kwqEWcz4Ma5k
f5yE8gssSIuEyYad3MO3SCxuALlbu3JBGr/iOGHBaeji5YdYyucB2BtULbzNNgz/
VTGY9oRBv48nA4iyzLA+oybJr8UcQ4tBkqEirXX/Roc1QZ+akl1xBFTlNcC3m2q+
+kTc+7OgEKG4ctmkZQgJFVUejO51exUbftkvesv9BoZRaM3sE/kgGaJw1MtJuxob
6tJ2KA+xJarLIJkCAwEAAaOB8DCB7TAOBgNVHQ8BAf8EBAMCBaAwCQYDVR0TBAIw
ADAdBgNVHSUEFjAUBggrBgEFBQcDAQYIKwYBBQUHAwIwHQYDVR0OBBYEFKDH1/uM
gwLo9QCgG17NPWV+aNAQMB8GA1UdIwQYMBaAFNAXhRSsgR0ppHVzAYdcQNKEaD1P
MD0GCCsGAQUFBwEBBDEwLzAtBggrBgEFBQcwAoYhaHR0cDovL2V4YW1wbGUuY29t
L2NhL2NsdXN0ZXIuY2VyMDIGA1UdHwQrMCkwJ6AloCOGIWh0dHA6Ly9leGFtcGxl
LmNvbS9jYS9jbHVzdGVyLmNybDANBgkqhkiG9w0BAQUFAAOCAQEAhPmpu4PGl9E3
M46jZZZcHDd5LYFKh1hyWx0hfc0HKoASBOQmsLaMWlct6XQuwU4d4VNtwhs4Z5HS
9kaygYw5Zs3anae8jGdXoGba+8zVaEm4+IyvG5oO2sskTFSEKxydz8km/ngzojJk
ZWWZbLsHvXpQBxy8yMwKTj5yiV5sdCL972gvKhoAHgb9rb6EyxIBjZ9+8wPH1sOu
dDcr4u2SXdhvd6nmprqbgL82EE6+3cF2Mz68OWNg6FUIthxAXyFzqr913Qw7gmj8
VgUEoVVfe9YF6HuxXo6NIs2Tf8A1zCFdtL/qG/uoOmx+bz0/ucU9ksGZhBVBUcuu
vR9sV6cXyQ==
-----END CERTIFICATE-----
