Certificate:
    Data:
        Version: 3 (0x2)
        Serial Number: 8 (0x8)
    Signature Algorithm: sha1WithRSAEncryption
        Issuer: C=SE, O=Example, OU=Example Certificate Authority, CN=Example Cluster Authority
        Validity
            Not Before: Mar 13 11:43:00 2018 GMT
            Not After : Sep  3 11:43:00 2023 GMT
        Subject: C=SE, O=Example, OU=Example Cluster, CN=Server 7
        Subject Public Key Info:
            Public Key Algorithm: rsaEncryption
                Public-Key: (2048 bit)
                Modulus:
                    00:b4:9f:16:6c:2b:68:fc:3a:11:e3:f3:69:6e:78:
                    b3:25:c8:b5:55:b8:1c:6d:52:eb:ea:e1:7b:27:f8:
                    43:a3:10:e8:c6:b7:f6:86:c9:55:da:e3:73:ba:bd:
                    1e:97:b6:19:3c:8a:26:1b:b6:87:3b:0d:99:79:07:
                    70:84:89:8d:92:70:2a:65:6b:a8:d8:a2:e6:18:1f:
                    a6:c4:ec:0f:85:b2:77:68:25:19:8e:9b:5b:8a:4a:
                    6d:59:10:63:91:93:57:3a:ca:18:32:03:ab:a2:09:
                    b8:c0:31:28:26:63:d5:0c:5b:59:e7:ca:1b:9a:6c:
                    fc:05:1c:ff:35:51:90:38:20:86:c6:3d:db:da:f0:
                    34:5a:c3:8d:d2:7d:a6:96:1c:42:ff:89:18:86:e4:
                    fa:af:8d:67:d2:e2:16:64:1e:03:d8:b7:a0:a3:32:
                    45:fe:73:65:8e:16:6e:97:1d:34:eb:6c:47:73:66:
                    59:56:41:08:ad:78:8c:5f:22:ed:c2:67:07:a0:00:
                    49:48:4e:fc:55:8c:19:04:e7:f3:bd:91:5a:c5:93:
                    8d:cc:43:4d:8f:51:6b:aa:88:fb:c5:5c:db:93:cf:
                    89:eb:ea:db:a6:f1:a9:16:0c:84:15:d4:24:16:33:
                    fa:0f:23:52:1a:15:fb:9a:22:16:13:95:35:cb:d6:
                    7f:67
                Exponent: 65537 (0x10001)
        X509v3 extensions:
            X509v3 Key Usage: critical
                Digital Signature, Key Encipherment
            X509v3 Basic Constraints: 
                CA:FALSE
            X509v3 Extended Key Usage: 
                TLS Web Server Authentication, TLS Web Client Authentication
            X509v3 Subject Key Identifier: 
                A4:E3:4D:4B:22:5B:0F:30:2F:69:45:C1:74:BE:2C:E8:FF:F3:D7:72
            X509v3 Authority Key Identifier: 
                keyid:D0:17:85:14:AC:81:1D:29:A4:75:73:01:87:5C:40:D2:84:68:3D:4F

            Authority Information Access: 
                CA Issuers - URI:http://example.com/ca/cluster.cer

            X509v3 CRL Distribution Points: 

                Full Name:
                  URI:http://example.com/ca/cluster.crl

    Signature Algorithm: sha1WithRSAEncryption
         7c:38:cf:69:34:f0:37:4e:f5:48:6b:63:c3:5a:09:ca:b8:de:
         99:e5:5a:d3:77:cc:2e:d1:4a:da:85:5d:a2:b6:f6:4e:05:1a:
         97:c8:35:2b:de:fd:9d:fb:54:c6:85:0e:b2:81:17:15:4c:40:
         82:ba:ad:ce:af:c6:12:78:6e:66:ce:b7:43:89:33:f4:20:51:
         39:9c:a3:73:0e:38:db:22:10:ad:bf:8d:6c:7e:2d:4d:ea:77:
         9d:00:fc:4b:16:53:7f:12:87:27:d5:2a:ea:75:6e:cd:d5:cc:
         28:25:c2:74:34:b0:90:b6:33:6d:d2:22:fc:12:c2:00:b3:9b:
         fa:48:00:c8:05:5e:51:77:ee:12:10:17:10:15:3d:05:47:22:
         9e:5e:ca:53:ba:75:23:c0:fa:ca:fd:26:ad:b8:8a:f9:52:13:
         31:31:0a:c3:a3:b3:65:1d:75:c3:73:2c:d4:f6:86:6e:02:66:
         11:83:e5:01:01:0c:69:21:f1:f3:9b:a5:cc:2e:23:e7:69:3d:
         bb:24:2e:02:f5:c3:e7:41:0b:db:22:77:30:ee:b3:0c:a2:d1:
         c5:81:f6:50:35:31:24:1d:92:2a:70:ed:29:ac:62:c0:57:ae:
         57:6a:60:de:ed:87:41:28:c0:37:0a:eb:d2:5d:dd:7a:e0:5b:
         13:cf:34:6c
-----BEGIN CERTIFICATE-----
MIIEIzCCAwugAwIBAgIBCDANBgkqhkiG9w0BAQUFADBrMQswCQYDVQQGEwJTRTEQ
MA4GA1UECgwHRXhhbXBsZTEmMCQGA1UECwwdRXhhbXBsZSBDZXJ0aWZpY2F0ZSBB
dXRob3JpdHkxIjAgBgNVBAMMGUV4YW1wbGUgQ2x1c3RlciBBdXRob3JpdHkwHhcN
MTgwMzEzMTE0MzAwWhcNMjMwOTAzMTE0MzAwWjBMMQswCQYDVQQGEwJTRTEQMA4G
A1UECgwHRXhhbXBsZTEYMBYGA1UECwwPRXhhbXBsZSBDbHVzdGVyMREwDwYDVQQD
DAhTZXJ2ZXIgNzCCASIwDQYJKoZIhvcNAQEBBQADggEPADCCAQoCggEBALSfFmwr
aPw6EePzaW54syXItVW4HG1S6+rheyf4Q6MQ6Ma39obJVdrjc7q9Hpe2GTyKJhu2
hzsNmXkHcISJjZJwKmVrqNii5hgfpsTsD4Wyd2glGY6bW4pKbVkQY5GTVzrKGDID
q6IJuMAxKCZj1QxbWefKG5ps/AUc/zVRkDgghsY929rwNFrDjdJ9ppYcQv+JGIbk
+q+NZ9LiFmQeA9i3oKMyRf5zZY4WbpcdNOtsR3NmWVZBCK14jF8i7cJnB6AASUhO
/FWMGQTn872RWsWTjcxDTY9Ra6qI+8Vc25PPievq26bxqRYMhBXUJBYz+g8jUhoV
+5oiFhOVNcvWf2cCAwEAAaOB8DCB7TAOBgNVHQ8BAf8EBAMCBaAwCQYDVR0TBAIw
ADAdBgNVHSUEFjAUBggrBgEFBQcDAQYIKwYBBQUHAwIwHQYDVR0OBBYEFKTjTUsi
Ww8wL2lFwXS+LOj/89dyMB8GA1UdIwQYMBaAFNAXhRSsgR0ppHVzAYdcQNKEaD1P
MD0GCCsGAQUFBwEBBDEwLzAtBggrBgEFBQcwAoYhaHR0cDovL2V4YW1wbGUuY29t
L2NhL2NsdXN0ZXIuY2VyMDIGA1UdHwQrMCkwJ6AloCOGIWh0dHA6Ly9leGFtcGxl
LmNvbS9jYS9jbHVzdGVyLmNybDANBgkqhkiG9w0BAQUFAAOCAQEAfDjPaTTwN071
SGtjw1oJyrjemeVa03fMLtFK2oVdorb2TgUal8g1K979nftUxoUOsoEXFUxAgrqt
zq/GEnhuZs63Q4kz9CBROZyjcw442yIQrb+NbH4tTep3nQD8SxZTfxKHJ9Uq6nVu
zdXMKCXCdDSwkLYzbdIi/BLCALOb+kgAyAVeUXfuEhAXEBU9BUcinl7KU7p1I8D6
yv0mrbiK+VITMTEKw6OzZR11w3Ms1PaGbgJmEYPlAQEMaSHx85ulzC4j52k9uyQu
AvXD50EL2yJ3MO6zDKLRxYH2UDUxJB2SKnDtKaxiwFeuV2pg3u2HQSjANwrr0l3d
euBbE880bA==
-----END CERTIFICATE-----
