Certificate:
    Data:
        Version: 3 (0x2)
        Serial Number: 9 (0x9)
        Signature Algorithm: sha256WithRSAEncryption
        Issuer: C=SE, O=Example, OU=Example Certificate Authority, CN=Example Cluster Authority
        Validity
            Not Before: Nov 26 11:09:47 2021 GMT
            Not After : May 19 11:09:47 2027 GMT
        Subject: C=SE, O=Example, OU=Example Cluster, CN=Server 8
        Subject Public Key Info:
            Public Key Algorithm: rsaEncryption
                RSA Public-Key: (2048 bit)
                Modulus:
                    00:df:06:8d:37:8d:a9:20:84:44:50:18:f6:82:db:
                    0a:76:2b:48:d9:34:df:cd:fe:a6:8e:9d:fc:89:40:
                    c7:5a:c1:5d:2b:a9:4e:73:f9:10:ae:05:95:d6:df:
                    43:12:05:49:44:1b:fb:96:8b:86:7f:0f:c3:fd:31:
                    46:54:a9:b0:30:e5:29:69:9f:4c:df:08:34:7f:07:
                    d6:63:a1:e7:ec:6d:2e:73:2e:22:a7:63:b6:1d:22:
                    5d:b7:89:10:42:d6:cf:ba:4e:6e:cc:be:9a:57:47:
                    6c:a9:1f:09:a5:7a:67:bc:e1:34:91:0f:8c:32:22:
                    9c:dc:26:d8:ee:36:2b:9e:48:00:79:d7:fb:53:d9:
                    78:93:d3:32:a8:81:84:31:75:2b:18:3a:7d:53:35:
                    36:8e:ec:a1:a5:7b:5d:7b:a7:fc:e6:a9:55:3e:1c:
                    4b:3c:ba:e6:f5:de:89:a8:fa:a9:63:5d:d5:b5:2a:
                    01:c9:76:f1:da:3a:67:ec:7c:54:62:c2:0b:7f:7e:
                    67:e2:5a:0e:59:b8:6f:82:e6:f2:c6:cc:56:55:e6:
                    a4:28:54:8b:9c:78:c7:4f:b3:9b:48:3a:da:e2:04:
                    8b:44:06:ba:25:d3:fa:a2:63:28:80:20:ae:fd:66:
                    09:48:44:84:6e:11:03:fd:97:3e:fc:68:f7:fd:a7:
                    8f:97
                Exponent: 65537 (0x10001)
        X509v3 extensions:
            X509v3 Key Usage: critical
                Digital Signature, Key Encipherment
            X509v3 Basic Constraints: 
                CA:FALSE
            X509v3 Extended Key Usage: 
                TLS Web Server Authentication, TLS Web Client Authentication
            X509v3 Subject Key Identifier: 
                20:D7:3D:11:F7:75:32:AD:2A:CF:7B:4E:57:4B:B3:87:FF:33:89:E2
            X509v3 Authority Key Identifier: 
                keyid:83:BA:16:EC:04:23:A7:40:34:8B:A0:3A:35:ED:CE:B6:E8:95:8E:2D

            Authority Information Access: 
                CA Issuers - URI:http://example.com/ca/cluster.cer

            X509v3 CRL Distribution Points: 

                Full Name:
                  URI:http://example.com/ca/cluster.crl

            X509v3 Subject Alternative Name: 
                DNS:localhost
    Signature Algorithm: sha256WithRSAEncryption
         2d:85:5c:7a:cb:7d:6e:26:c0:f1:bd:35:9f:41:fc:60:86:2e:
         8a:47:6d:97:90:18:61:20:14:de:a4:7f:df:dc:52:31:34:77:
         e0:13:aa:f3:10:bb:a0:98:69:e7:e9:34:01:94:aa:8b:d1:dc:
         2c:a9:25:f6:36:36:c0:c5:62:8e:a2:fe:6b:70:96:4c:4b:e6:
         d6:6b:59:b2:a3:ea:a9:1d:32:d4:50:f5:f5:57:8c:b1:bf:4a:
         9c:c0:a1:8d:e2:14:01:60:19:44:26:25:ab:c2:0e:35:46:99:
         78:5d:dd:5b:4d:6a:39:59:08:7b:bc:96:0c:93:31:8f:2a:bf:
         4d:88:57:75:82:7f:4d:97:4d:f2:f6:3f:54:10:41:5e:86:17:
         55:67:d2:61:bc:e1:b5:a9:a6:a5:ba:49:aa:01:11:a5:c8:c2:
         f5:06:f1:d2:98:21:eb:5f:83:ff:d6:eb:07:d6:ab:18:d3:00:
         51:33:e4:7e:50:f6:b3:43:d4:ed:30:84:a2:02:bc:44:ce:07:
         7b:f7:8e:cf:b1:d7:f9:ee:9c:50:c7:f8:df:d0:48:b0:4d:6b:
         09:36:4e:0c:04:57:38:4a:8b:f4:31:a5:8f:1d:02:c8:d4:aa:
         e1:0c:e2:11:65:54:26:e9:19:89:f6:19:88:7b:aa:1b:24:22:
         d8:26:55:68
-----BEGIN CERTIFICATE-----
MIIEOzCCAyOgAwIBAgIBCTANBgkqhkiG9w0BAQsFADBrMQswCQYDVQQGEwJTRTEQ
MA4GA1UECgwHRXhhbXBsZTEmMCQGA1UECwwdRXhhbXBsZSBDZXJ0aWZpY2F0ZSBB
dXRob3JpdHkxIjAgBgNVBAMMGUV4YW1wbGUgQ2x1c3RlciBBdXRob3JpdHkwHhcN
MjExMTI2MTEwOTQ3WhcNMjcwNTE5MTEwOTQ3WjBMMQswCQYDVQQGEwJTRTEQMA4G
A1UECgwHRXhhbXBsZTEYMBYGA1UECwwPRXhhbXBsZSBDbHVzdGVyMREwDwYDVQQD
DAhTZXJ2ZXIgODCCASIwDQYJKoZIhvcNAQEBBQADggEPADCCAQoCggEBAN8GjTeN
qSCERFAY9oLbCnYrSNk0383+po6d/IlAx1rBXSupTnP5EK4FldbfQxIFSUQb+5aL
hn8Pw/0xRlSpsDDlKWmfTN8INH8H1mOh5+xtLnMuIqdjth0iXbeJEELWz7pObsy+
mldHbKkfCaV6Z7zhNJEPjDIinNwm2O42K55IAHnX+1PZeJPTMqiBhDF1Kxg6fVM1
No7soaV7XXun/OapVT4cSzy65vXeiaj6qWNd1bUqAcl28do6Z+x8VGLCC39+Z+Ja
Dlm4b4Lm8sbMVlXmpChUi5x4x0+zm0g62uIEi0QGuiXT+qJjKIAgrv1mCUhEhG4R
A/2XPvxo9/2nj5cCAwEAAaOCAQcwggEDMA4GA1UdDwEB/wQEAwIFoDAJBgNVHRME
AjAAMB0GA1UdJQQWMBQGCCsGAQUFBwMBBggrBgEFBQcDAjAdBgNVHQ4EFgQUINc9
Efd1Mq0qz3tOV0uzh/8zieIwHwYDVR0jBBgwFoAUg7oW7AQjp0A0i6A6Ne3OtuiV
ji0wPQYIKwYBBQUHAQEEMTAvMC0GCCsGAQUFBzAChiFodHRwOi8vZXhhbXBsZS5j
b20vY2EvY2x1c3Rlci5jZXIwMgYDVR0fBCswKTAnoCWgI4YhaHR0cDovL2V4YW1w
bGUuY29tL2NhL2NsdXN0ZXIuY3JsMBQGA1UdEQQNMAuCCWxvY2FsaG9zdDANBgkq
hkiG9w0BAQsFAAOCAQEALYVcest9bibA8b01n0H8YIYuikdtl5AYYSAU3qR/39xS
MTR34BOq8xC7oJhp5+k0AZSqi9HcLKkl9jY2wMVijqL+a3CWTEvm1mtZsqPqqR0y
1FD19VeMsb9KnMChjeIUAWAZRCYlq8IONUaZeF3dW01qOVkIe7yWDJMxjyq/TYhX
dYJ/TZdN8vY/VBBBXoYXVWfSYbzhtammpbpJqgERpcjC9Qbx0pgh61+D/9brB9ar
GNMAUTPkflD2s0PU7TCEogK8RM4He/eOz7HX+e6cUMf439BIsE1rCTZODARXOEqL
9DGljx0CyNSq4QziEWVUJukZifYZiHuqGyQi2CZVaA==
-----END CERTIFICATE-----
