Certificate:
    Data:
        Version: 3 (0x2)
        Serial Number: 9 (0x9)
    Signature Algorithm: sha1WithRSAEncryption
        Issuer: C=SE, O=Example, OU=Example Certificate Authority, CN=Example Cluster Authority
        Validity
            Not Before: Mar 13 11:43:00 2018 GMT
            Not After : Sep  3 11:43:00 2023 GMT
        Subject: C=SE, O=Example, OU=Example Cluster, CN=Server 8
        Subject Public Key Info:
            Public Key Algorithm: rsaEncryption
                Public-Key: (2048 bit)
                Modulus:
                    00:cc:37:87:ae:f6:f7:26:64:1e:85:9d:db:5f:d4:
                    71:e0:47:a8:de:91:85:4e:5e:fc:5c:69:3a:69:62:
                    99:d3:29:8b:6d:e1:ea:c5:54:a5:e9:65:c4:ca:eb:
                    f5:f9:f4:c9:1a:9b:6d:2e:45:f0:ab:7c:c9:fd:6a:
                    73:59:f5:4c:34:a0:31:8d:ba:53:de:b3:19:5f:93:
                    22:cf:02:65:06:8e:09:8f:62:63:2e:03:cc:66:af:
                    5b:db:8a:45:6a:0b:b5:fa:a0:34:47:7a:b8:06:45:
                    70:1b:24:f4:b7:f1:81:b2:8b:2e:5c:8f:6b:ec:f9:
                    b0:45:fd:0a:a1:b0:e7:5b:25:7b:b6:af:b6:0b:06:
                    75:d3:ec:18:cb:c5:9a:1b:c1:6b:1f:2b:df:88:0d:
                    bd:3f:00:9b:b6:fe:bd:99:fe:f6:95:d6:b4:22:7a:
                    63:1c:11:73:d2:d1:fb:e7:64:33:25:79:00:48:94:
                    82:0c:43:4f:64:13:f6:fe:5f:05:cc:c6:0b:ce:02:
                    f0:41:01:5d:b9:7d:1e:5a:64:a9:4d:3a:26:49:a7:
                    89:3c:ac:85:9b:fa:44:0a:7a:7a:3c:04:29:87:c5:
                    ef:62:fb:7c:ef:2c:d8:8e:86:78:c2:34:a1:05:16:
                    9e:7f:04:17:64:d3:96:9c:28:97:65:f1:b4:e1:1c:
                    c9:9b
                Exponent: 65537 (0x10001)
        X509v3 extensions:
            X509v3 Key Usage: critical
                Digital Signature, Key Encipherment
            X509v3 Basic Constraints: 
                CA:FALSE
            X509v3 Extended Key Usage: 
                TLS Web Server Authentication, TLS Web Client Authentication
            X509v3 Subject Key Identifier: 
                55:DD:B9:91:F3:82:62:FE:4B:2F:47:62:C2:FC:99:8B:35:96:C8:E1
            X509v3 Authority Key Identifier: 
                keyid:D0:17:85:14:AC:81:1D:29:A4:75:73:01:87:5C:40:D2:84:68:3D:4F

            Authority Information Access: 
                CA Issuers - URI:http://example.com/ca/cluster.cer

            X509v3 CRL Distribution Points: 

                Full Name:
                  URI:http://example.com/ca/cluster.crl

    Signature Algorithm: sha1WithRSAEncryption
         74:6d:ca:c5:2e:ee:50:26:55:56:ee:18:95:55:37:b5:18:c7:
         ee:d7:43:32:52:82:84:50:1a:d5:b1:0c:16:d2:80:05:c7:21:
         ff:72:cc:07:64:d5:a4:be:bc:26:c5:78:5b:80:07:6c:12:f2:
         f5:23:0c:7f:e8:24:25:ff:01:d2:af:b5:3b:6a:b9:2e:e2:79:
         d7:d4:a7:5d:e8:67:b5:15:90:df:6c:be:a8:f7:bd:b9:28:8c:
         7f:69:9a:ee:94:be:cd:53:90:5b:ad:c6:e8:f5:37:ff:8f:97:
         56:d8:5c:d0:b8:99:65:ab:25:02:a3:e4:c4:c8:ff:86:f1:f8:
         0a:59:b2:b5:6e:b5:9f:5f:3b:1c:4a:7f:3e:0b:3d:0d:9a:02:
         81:0b:e2:76:56:5c:53:92:dc:58:5c:dd:58:43:6a:b4:65:7d:
         84:05:f2:15:d4:b4:cd:7c:38:ad:2e:0c:d4:60:29:fb:f3:d0:
         83:24:6b:48:6a:36:73:e5:0e:9c:6d:45:8f:1e:80:42:a0:60:
         79:04:64:bb:31:0a:83:b3:dc:41:16:81:6f:44:df:72:55:b7:
         19:92:85:87:6b:b9:e9:b9:df:4e:62:84:8f:ef:37:9c:0b:85:
         a7:40:c3:31:de:2c:d9:d9:06:41:4f:8d:68:6b:fc:86:c8:97:
         d4:de:ab:e5
-----BEGIN CERTIFICATE-----
MIIEIzCCAwugAwIBAgIBCTANBgkqhkiG9w0BAQUFADBrMQswCQYDVQQGEwJTRTEQ
MA4GA1UECgwHRXhhbXBsZTEmMCQGA1UECwwdRXhhbXBsZSBDZXJ0aWZpY2F0ZSBB
dXRob3JpdHkxIjAgBgNVBAMMGUV4YW1wbGUgQ2x1c3RlciBBdXRob3JpdHkwHhcN
MTgwMzEzMTE0MzAwWhcNMjMwOTAzMTE0MzAwWjBMMQswCQYDVQQGEwJTRTEQMA4G
A1UECgwHRXhhbXBsZTEYMBYGA1UECwwPRXhhbXBsZSBDbHVzdGVyMREwDwYDVQQD
DAhTZXJ2ZXIgODCCASIwDQYJKoZIhvcNAQEBBQADggEPADCCAQoCggEBAMw3h672
9yZkHoWd21/UceBHqN6RhU5e/FxpOmlimdMpi23h6sVUpellxMrr9fn0yRqbbS5F
8Kt8yf1qc1n1TDSgMY26U96zGV+TIs8CZQaOCY9iYy4DzGavW9uKRWoLtfqgNEd6
uAZFcBsk9LfxgbKLLlyPa+z5sEX9CqGw51sle7avtgsGddPsGMvFmhvBax8r34gN
vT8Am7b+vZn+9pXWtCJ6YxwRc9LR++dkMyV5AEiUggxDT2QT9v5fBczGC84C8EEB
Xbl9HlpkqU06JkmniTyshZv6RAp6ejwEKYfF72L7fO8s2I6GeMI0oQUWnn8EF2TT
lpwol2XxtOEcyZsCAwEAAaOB8DCB7TAOBgNVHQ8BAf8EBAMCBaAwCQYDVR0TBAIw
ADAdBgNVHSUEFjAUBggrBgEFBQcDAQYIKwYBBQUHAwIwHQYDVR0OBBYEFFXduZHz
gmL+Sy9HYsL8mYs1lsjhMB8GA1UdIwQYMBaAFNAXhRSsgR0ppHVzAYdcQNKEaD1P
MD0GCCsGAQUFBwEBBDEwLzAtBggrBgEFBQcwAoYhaHR0cDovL2V4YW1wbGUuY29t
L2NhL2NsdXN0ZXIuY2VyMDIGA1UdHwQrMCkwJ6AloCOGIWh0dHA6Ly9leGFtcGxl
LmNvbS9jYS9jbHVzdGVyLmNybDANBgkqhkiG9w0BAQUFAAOCAQEAdG3KxS7uUCZV
Vu4YlVU3tRjH7tdDMlKChFAa1bEMFtKABcch/3LMB2TVpL68JsV4W4AHbBLy9SMM
f+gkJf8B0q+1O2q5LuJ519SnXehntRWQ32y+qPe9uSiMf2ma7pS+zVOQW63G6PU3
/4+XVthc0LiZZaslAqPkxMj/hvH4ClmytW61n187HEp/Pgs9DZoCgQvidlZcU5Lc
WFzdWENqtGV9hAXyFdS0zXw4rS4M1GAp+/PQgyRrSGo2c+UOnG1Fjx6AQqBgeQRk
uzEKg7PcQRaBb0TfclW3GZKFh2u56bnfTmKEj+83nAuFp0DDMd4s2dkGQU+NaGv8
hsiX1N6r5Q==
-----END CERTIFICATE-----
