Certificate:
    Data:
        Version: 3 (0x2)
        Serial Number: 10 (0xa)
        Signature Algorithm: sha1WithRSAEncryption
        Issuer: C=SE, O=Example, OU=Example Certificate Authority, CN=Example Cluster Authority
        Validity
            Not Before: Jan  9 14:58:46 2024 GMT
            Not After : Jul  1 14:58:46 2029 GMT
        Subject: C=SE, O=Example, OU=Example Cluster, CN=Server 9
        Subject Public Key Info:
            Public Key Algorithm: rsaEncryption
                Public-Key: (2048 bit)
                Modulus:
                    00:b6:80:ac:a2:5f:89:ac:d5:dc:df:aa:30:45:44:
                    80:5d:fd:45:82:64:7c:71:31:d8:b7:c6:46:36:45:
                    be:bd:ef:81:5c:f1:6c:d2:c7:7d:e1:8b:37:b9:7a:
                    80:2b:c5:33:35:2b:1f:a5:96:f9:04:99:58:99:bc:
                    5a:60:32:1f:22:d5:d2:85:e9:52:9c:7e:87:e0:32:
                    91:63:56:86:8f:2a:59:09:2c:47:9c:bb:d9:da:a8:
                    e8:6f:c2:e7:2f:97:16:91:a3:71:cd:8d:b8:dd:a6:
                    d6:fb:4b:92:c1:07:f5:c7:5c:01:55:75:5b:d0:57:
                    df:9d:71:a6:8b:b5:ab:44:cd:3e:ba:de:ff:83:1a:
                    60:03:d3:e7:86:2c:d5:ca:9d:c6:02:db:21:16:21:
                    3b:fb:de:d3:99:63:72:77:eb:df:42:56:fe:fb:78:
                    0f:96:91:16:6d:ac:ba:ee:fb:a6:3c:33:44:71:97:
                    32:c2:f0:47:9a:39:29:47:b0:82:e6:bf:2a:04:2e:
                    27:ed:93:8c:9f:6b:7d:42:1d:46:f3:da:0e:d8:63:
                    a7:55:2b:79:e1:be:66:06:f2:d4:21:3f:2d:32:9d:
                    a7:9a:7f:6f:57:81:42:98:1a:c0:aa:06:1a:ce:ef:
                    9f:c6:93:07:9d:c2:37:77:3e:c2:b6:b5:bc:3a:a7:
                    14:65
                Exponent: 65537 (0x10001)
        X509v3 extensions:
            X509v3 Key Usage: critical
                Digital Signature, Key Encipherment
            X509v3 Basic Constraints: 
                CA:FALSE
            X509v3 Extended Key Usage: 
                TLS Web Server Authentication, TLS Web Client Authentication
            X509v3 Subject Key Identifier: 
                72:D5:E8:3C:B0:98:BC:9B:E5:C0:0B:4D:C7:ED:FE:6D:1B:CA:2A:FF
            X509v3 Authority Key Identifier: 
                FE:6D:67:B0:11:E4:BB:CF:70:E0:75:A6:1C:21:33:83:15:32:5B:7B
            Authority Information Access: 
                CA Issuers - URI:http://example.com/ca/cluster.cer
            X509v3 CRL Distribution Points: 
                Full Name:
                  URI:http://example.com/ca/cluster.crl
            X509v3 Subject Alternative Name: 
                DNS:localhost
    Signature Algorithm: sha1WithRSAEncryption
    Signature Value:
        7d:fb:69:bd:cf:dd:36:cb:17:9e:61:cb:a7:d0:13:9e:bd:90:
        75:37:ac:c5:48:d2:80:d3:8c:07:51:17:b5:f5:e1:6f:19:9e:
        98:27:98:24:06:10:ac:18:cd:0f:92:ae:db:78:ed:5d:de:11:
        f3:ba:7f:da:de:2a:cb:08:29:33:0b:39:96:fe:af:55:cd:b0:
        76:2c:c3:8b:c3:56:94:22:40:e3:85:21:f0:86:49:34:5d:6b:
        c5:7f:28:d4:41:04:24:e1:a8:5c:7a:1d:79:97:48:dd:db:9b:
        05:d0:53:2e:91:f4:d5:2c:82:ee:89:2f:b9:36:6d:5d:f8:2f:
        9e:fb:85:3e:5c:cb:47:1c:ef:40:ec:c7:55:b0:07:ba:e1:d5:
        5b:ba:6f:9f:de:6d:d7:6c:47:b6:f9:6d:d9:83:b4:c0:81:73:
        61:08:b5:fb:2d:82:e0:ab:4d:20:e9:92:3a:f1:70:31:c0:71:
        ec:bd:30:45:90:5a:66:49:da:d6:93:8e:a9:5a:64:df:af:38:
        24:25:12:32:44:cc:4a:14:e1:3e:ce:39:11:fb:a2:9e:8a:6d:
        f0:f6:8e:c7:de:cf:89:07:cd:9f:b8:34:ea:32:28:56:40:69:
        18:29:4e:3a:83:7e:3a:e9:7c:3d:b3:76:66:d0:26:24:ff:72:
        46:ef:8a:fa
-----BEGIN CERTIFICATE-----
MIIEOzCCAyOgAwIBAgIBCjANBgkqhkiG9w0BAQUFADBrMQswCQYDVQQGEwJTRTEQ
MA4GA1UECgwHRXhhbXBsZTEmMCQGA1UECwwdRXhhbXBsZSBDZXJ0aWZpY2F0ZSBB
dXRob3JpdHkxIjAgBgNVBAMMGUV4YW1wbGUgQ2x1c3RlciBBdXRob3JpdHkwHhcN
MjQwMTA5MTQ1ODQ2WhcNMjkwNzAxMTQ1ODQ2WjBMMQswCQYDVQQGEwJTRTEQMA4G
A1UECgwHRXhhbXBsZTEYMBYGA1UECwwPRXhhbXBsZSBDbHVzdGVyMREwDwYDVQQD
DAhTZXJ2ZXIgOTCCASIwDQYJKoZIhvcNAQEBBQADggEPADCCAQoCggEBALaArKJf
iazV3N+qMEVEgF39RYJkfHEx2LfGRjZFvr3vgVzxbNLHfeGLN7l6gCvFMzUrH6WW
+QSZWJm8WmAyHyLV0oXpUpx+h+AykWNWho8qWQksR5y72dqo6G/C5y+XFpGjcc2N
uN2m1vtLksEH9cdcAVV1W9BX351xpou1q0TNPrre/4MaYAPT54Ys1cqdxgLbIRYh
O/ve05ljcnfr30JW/vt4D5aRFm2suu77pjwzRHGXMsLwR5o5KUewgua/KgQuJ+2T
jJ9rfUIdRvPaDthjp1UreeG+Zgby1CE/LTKdp5p/b1eBQpgawKoGGs7vn8aTB53C
N3c+wra1vDqnFGUCAwEAAaOCAQcwggEDMA4GA1UdDwEB/wQEAwIFoDAJBgNVHRME
AjAAMB0GA1UdJQQWMBQGCCsGAQUFBwMBBggrBgEFBQcDAjAdBgNVHQ4EFgQUctXo
PLCYvJvlwAtNx+3+bRvKKv8wHwYDVR0jBBgwFoAU/m1nsBHku89w4HWmHCEzgxUy
W3swPQYIKwYBBQUHAQEEMTAvMC0GCCsGAQUFBzAChiFodHRwOi8vZXhhbXBsZS5j
b20vY2EvY2x1c3Rlci5jZXIwMgYDVR0fBCswKTAnoCWgI4YhaHR0cDovL2V4YW1w
bGUuY29tL2NhL2NsdXN0ZXIuY3JsMBQGA1UdEQQNMAuCCWxvY2FsaG9zdDANBgkq
hkiG9w0BAQUFAAOCAQEAfftpvc/dNssXnmHLp9ATnr2QdTesxUjSgNOMB1EXtfXh
bxmemCeYJAYQrBjND5Ku23jtXd4R87p/2t4qywgpMws5lv6vVc2wdizDi8NWlCJA
44Uh8IZJNF1rxX8o1EEEJOGoXHodeZdI3dubBdBTLpH01SyC7okvuTZtXfgvnvuF
PlzLRxzvQOzHVbAHuuHVW7pvn95t12xHtvlt2YO0wIFzYQi1+y2C4KtNIOmSOvFw
McBx7L0wRZBaZkna1pOOqVpk3684JCUSMkTMShThPs45Efuinopt8PaOx97PiQfN
n7g06jIoVkBpGClOOoN+Oul8PbN2ZtAmJP9yRu+K+g==
-----END CERTIFICATE-----
