Certificate:
    Data:
        Version: 3 (0x2)
        Serial Number: 10 (0xa)
    Signature Algorithm: sha1WithRSAEncryption
        Issuer: C=SE, O=Example, OU=Example Certificate Authority, CN=Example Cluster Authority
        Validity
            Not Before: Mar 13 11:43:00 2018 GMT
            Not After : Sep  3 11:43:00 2023 GMT
        Subject: C=SE, O=Example, OU=Example Cluster, CN=Server 9
        Subject Public Key Info:
            Public Key Algorithm: rsaEncryption
                Public-Key: (2048 bit)
                Modulus:
                    00:a4:d8:aa:91:c9:e2:f1:87:11:10:c3:63:06:db:
                    0c:d9:ae:60:5c:38:f7:3d:4b:ba:54:de:91:d1:a9:
                    d0:df:f7:38:03:cf:8e:0f:ce:da:22:a7:63:5c:b2:
                    19:a8:07:f9:96:32:a2:a4:42:6a:ba:97:74:e2:cd:
                    30:1f:ad:6f:13:c2:d2:63:ba:c8:ec:a4:4b:d1:f3:
                    64:9f:42:19:70:6a:65:ed:54:ea:24:b6:d7:01:27:
                    7a:3c:f8:0e:04:38:ea:eb:9f:18:47:87:09:2a:51:
                    0e:03:ac:9b:8b:81:7c:8d:d8:94:be:40:a8:35:3c:
                    8e:ae:53:5f:d7:38:02:d3:1b:b7:ed:67:4c:cf:98:
                    c3:6e:5b:d9:34:e8:bc:7e:1b:ac:8e:10:44:e8:89:
                    8c:b7:43:47:ab:9c:12:74:87:21:b0:c9:c6:0f:2e:
                    40:6b:d3:3f:fd:cd:82:6f:af:d7:32:43:af:f2:de:
                    09:a4:f5:18:30:83:32:a5:b0:40:4a:84:ab:73:43:
                    cb:9e:d8:82:ac:68:7f:72:74:67:19:d5:24:cc:bb:
                    f2:62:24:1d:30:dc:53:d2:40:41:14:05:99:50:f2:
                    ed:93:38:9d:84:d5:5e:5a:2f:f4:36:98:82:74:fc:
                    3c:1a:a6:5d:ea:91:e2:57:d1:84:5a:b4:14:92:13:
                    17:2b
                Exponent: 65537 (0x10001)
        X509v3 extensions:
            X509v3 Key Usage: critical
                Digital Signature, Key Encipherment
            X509v3 Basic Constraints: 
                CA:FALSE
            X509v3 Extended Key Usage: 
                TLS Web Server Authentication, TLS Web Client Authentication
            X509v3 Subject Key Identifier: 
                A2:75:0C:7E:73:84:A7:25:B1:D4:BF:22:42:B4:1C:D1:39:95:CB:21
            X509v3 Authority Key Identifier: 
                keyid:D0:17:85:14:AC:81:1D:29:A4:75:73:01:87:5C:40:D2:84:68:3D:4F

            Authority Information Access: 
                CA Issuers - URI:http://example.com/ca/cluster.cer

            X509v3 CRL Distribution Points: 

                Full Name:
                  URI:http://example.com/ca/cluster.crl

    Signature Algorithm: sha1WithRSAEncryption
         ab:fb:69:0b:4d:a9:63:4b:71:50:94:f1:8f:7b:65:5a:23:95:
         e3:f6:2f:9e:d5:1d:44:bc:56:06:22:36:7e:cf:aa:34:da:ac:
         bc:04:ac:a6:35:f8:5f:9c:e9:d4:3c:17:6b:16:68:06:a1:96:
         2f:36:e7:a4:0a:67:ea:12:c4:15:b7:42:56:a5:5c:82:85:39:
         3f:48:3e:1f:f4:fa:22:40:bf:6c:c2:7f:d6:5e:7f:72:e0:6c:
         16:44:f4:39:8a:7e:9d:a8:76:34:b2:65:73:76:b8:77:b7:14:
         68:6d:ea:f2:b9:a3:28:91:c3:2a:f2:8b:70:b6:ef:88:07:ce:
         d3:b2:5c:0e:2a:aa:d8:b6:14:b7:a0:8e:c8:6f:96:54:e1:6a:
         ab:2b:1c:1f:c7:92:c9:f8:13:b1:a7:7e:27:e4:9f:5a:40:26:
         da:38:28:ff:81:cc:f5:78:c7:33:89:ee:19:1b:bf:65:4a:ca:
         4e:af:23:56:ed:08:8b:7f:8e:f9:d0:6b:33:1f:53:b5:b1:06:
         55:fa:0e:dc:e3:a8:d5:d0:71:08:78:e6:f7:d6:69:79:38:07:
         4c:a8:9e:cc:85:e8:c5:76:99:69:1e:45:08:0c:79:c1:2b:8b:
         64:14:93:5e:1f:91:5a:25:af:93:1f:9b:a9:cf:38:ab:b5:46:
         07:a9:33:37
-----BEGIN CERTIFICATE-----
MIIEIzCCAwugAwIBAgIBCjANBgkqhkiG9w0BAQUFADBrMQswCQYDVQQGEwJTRTEQ
MA4GA1UECgwHRXhhbXBsZTEmMCQGA1UECwwdRXhhbXBsZSBDZXJ0aWZpY2F0ZSBB
dXRob3JpdHkxIjAgBgNVBAMMGUV4YW1wbGUgQ2x1c3RlciBBdXRob3JpdHkwHhcN
MTgwMzEzMTE0MzAwWhcNMjMwOTAzMTE0MzAwWjBMMQswCQYDVQQGEwJTRTEQMA4G
A1UECgwHRXhhbXBsZTEYMBYGA1UECwwPRXhhbXBsZSBDbHVzdGVyMREwDwYDVQQD
DAhTZXJ2ZXIgOTCCASIwDQYJKoZIhvcNAQEBBQADggEPADCCAQoCggEBAKTYqpHJ
4vGHERDDYwbbDNmuYFw49z1LulTekdGp0N/3OAPPjg/O2iKnY1yyGagH+ZYyoqRC
arqXdOLNMB+tbxPC0mO6yOykS9HzZJ9CGXBqZe1U6iS21wEnejz4DgQ46uufGEeH
CSpRDgOsm4uBfI3YlL5AqDU8jq5TX9c4AtMbt+1nTM+Yw25b2TTovH4brI4QROiJ
jLdDR6ucEnSHIbDJxg8uQGvTP/3Ngm+v1zJDr/LeCaT1GDCDMqWwQEqEq3NDy57Y
gqxof3J0ZxnVJMy78mIkHTDcU9JAQRQFmVDy7ZM4nYTVXlov9DaYgnT8PBqmXeqR
4lfRhFq0FJITFysCAwEAAaOB8DCB7TAOBgNVHQ8BAf8EBAMCBaAwCQYDVR0TBAIw
ADAdBgNVHSUEFjAUBggrBgEFBQcDAQYIKwYBBQUHAwIwHQYDVR0OBBYEFKJ1DH5z
hKclsdS/IkK0HNE5lcshMB8GA1UdIwQYMBaAFNAXhRSsgR0ppHVzAYdcQNKEaD1P
MD0GCCsGAQUFBwEBBDEwLzAtBggrBgEFBQcwAoYhaHR0cDovL2V4YW1wbGUuY29t
L2NhL2NsdXN0ZXIuY2VyMDIGA1UdHwQrMCkwJ6AloCOGIWh0dHA6Ly9leGFtcGxl
LmNvbS9jYS9jbHVzdGVyLmNybDANBgkqhkiG9w0BAQUFAAOCAQEAq/tpC02pY0tx
UJTxj3tlWiOV4/YvntUdRLxWBiI2fs+qNNqsvASspjX4X5zp1DwXaxZoBqGWLzbn
pApn6hLEFbdCVqVcgoU5P0g+H/T6IkC/bMJ/1l5/cuBsFkT0OYp+nah2NLJlc3a4
d7cUaG3q8rmjKJHDKvKLcLbviAfO07JcDiqq2LYUt6COyG+WVOFqqyscH8eSyfgT
sad+J+SfWkAm2jgo/4HM9XjHM4nuGRu/ZUrKTq8jVu0Ii3+O+dBrMx9TtbEGVfoO
3OOo1dBxCHjm99ZpeTgHTKiezIXoxXaZaR5FCAx5wSuLZBSTXh+RWiWvkx+bqc84
q7VGB6kzNw==
-----END CERTIFICATE-----
