Certificate:
    Data:
        Version: 3 (0x2)
        Serial Number: 10 (0xa)
    Signature Algorithm: sha1WithRSAEncryption
        Issuer: C=SE, O=Example, OU=Example Certificate Authority, CN=Example Cluster Authority
        Validity
            Not Before: Jul  9 14:29:07 2018 GMT
            Not After : Dec 30 14:29:07 2023 GMT
        Subject: C=SE, O=Example, OU=Example Cluster, CN=Server 9
        Subject Public Key Info:
            Public Key Algorithm: rsaEncryption
                Public-Key: (2048 bit)
                Modulus:
                    00:cd:76:45:1d:c7:4a:f9:f3:16:2f:06:d1:bb:49:
                    d2:c3:86:53:b0:ce:69:1e:66:0a:8d:c0:e8:38:73:
                    8c:14:99:44:58:0c:c1:dc:b2:a6:82:33:b2:ba:ca:
                    77:cb:ec:24:37:19:1a:9a:80:86:54:39:3e:f3:b1:
                    cb:da:b5:5c:a8:2e:1f:8a:87:dc:80:74:8d:5d:f4:
                    35:6b:a5:5d:fc:34:d7:19:a8:72:c9:14:cd:07:86:
                    2b:6a:8e:db:68:cc:80:d0:c8:a0:06:b5:6c:b4:6c:
                    a9:5d:99:20:12:ce:31:a3:c7:bc:70:c9:a2:b9:13:
                    84:2f:04:72:4a:68:60:d3:6a:bf:b1:4c:ca:c0:08:
                    5c:5a:1d:98:f6:8a:e7:35:ac:7c:4e:2c:33:81:2c:
                    de:e4:33:23:2c:a6:a9:90:91:c4:86:ad:50:be:2f:
                    1c:cd:4e:b4:08:53:51:6d:7c:8f:b3:95:2b:f6:8d:
                    61:c4:a2:27:d6:e1:2e:f3:d4:67:ad:df:a0:43:a8:
                    72:8d:d5:18:62:5d:49:97:30:85:d8:f4:51:ae:e7:
                    1b:f7:7b:15:ac:d7:ed:de:99:5d:1e:4d:99:0b:5c:
                    06:ee:87:29:75:ce:0e:a0:c4:59:36:03:60:bf:16:
                    be:9a:49:48:e2:ce:19:6f:ec:20:79:cd:c3:eb:34:
                    12:df
                Exponent: 65537 (0x10001)
        X509v3 extensions:
            X509v3 Key Usage: critical
                Digital Signature, Key Encipherment
            X509v3 Basic Constraints: 
                CA:FALSE
            X509v3 Extended Key Usage: 
                TLS Web Server Authentication, TLS Web Client Authentication
            X509v3 Subject Key Identifier: 
                29:C9:DA:87:80:DC:20:07:CD:C0:A9:40:68:69:A5:81:FB:33:31:9F
            X509v3 Authority Key Identifier: 
                keyid:BD:CD:52:9A:5A:3D:8A:10:85:DF:95:56:63:EE:2B:3A:74:74:E4:33

            Authority Information Access: 
                CA Issuers - URI:http://example.com/ca/cluster.cer

            X509v3 CRL Distribution Points: 

                Full Name:
                  URI:http://example.com/ca/cluster.crl

            X509v3 Subject Alternative Name: 
                DNS:localhost
    Signature Algorithm: sha1WithRSAEncryption
         31:bb:b8:d1:03:ee:d7:a3:37:83:0f:09:c9:ee:7b:30:60:46:
         25:43:a6:f7:28:cc:7a:73:4b:a9:25:83:c2:14:d9:91:3f:5f:
         e6:62:a9:18:6f:20:f1:a6:40:23:f7:ef:bf:be:84:00:ed:db:
         4e:b1:d7:09:0e:02:3d:8e:66:23:88:1e:b0:0c:4d:73:e0:8c:
         61:e2:11:db:04:7e:7b:8e:f2:d2:0d:af:f3:3d:b1:13:ee:99:
         8b:95:b7:2f:6c:b9:04:37:b9:b3:5d:67:92:be:95:07:00:86:
         b1:c7:19:f2:ba:92:3c:6d:d9:cf:aa:a3:34:c3:05:7d:5a:4d:
         62:ca:3c:bc:a6:85:71:62:00:d3:ee:50:12:91:57:f4:b4:58:
         f4:c6:71:c7:58:ee:87:68:a2:8f:49:fc:02:c6:07:16:d0:ee:
         18:0d:75:55:6f:b0:c1:c3:5e:5f:ed:91:77:b6:7a:42:58:f5:
         47:1c:d1:ae:d3:06:a5:08:c3:bd:cf:74:f5:9a:b7:fd:9d:98:
         fa:62:2c:4f:5c:ee:41:65:99:6d:1a:c1:ee:d5:f6:d9:e2:cb:
         32:5f:8e:eb:03:17:17:a1:68:84:13:ef:60:62:2e:56:ed:74:
         63:cd:e5:72:c2:c2:e7:f2:4a:09:5b:c4:62:fb:19:c3:8d:f0:
         09:47:fb:1d
-----BEGIN CERTIFICATE-----
MIIEOzCCAyOgAwIBAgIBCjANBgkqhkiG9w0BAQUFADBrMQswCQYDVQQGEwJTRTEQ
MA4GA1UECgwHRXhhbXBsZTEmMCQGA1UECwwdRXhhbXBsZSBDZXJ0aWZpY2F0ZSBB
dXRob3JpdHkxIjAgBgNVBAMMGUV4YW1wbGUgQ2x1c3RlciBBdXRob3JpdHkwHhcN
MTgwNzA5MTQyOTA3WhcNMjMxMjMwMTQyOTA3WjBMMQswCQYDVQQGEwJTRTEQMA4G
A1UECgwHRXhhbXBsZTEYMBYGA1UECwwPRXhhbXBsZSBDbHVzdGVyMREwDwYDVQQD
DAhTZXJ2ZXIgOTCCASIwDQYJKoZIhvcNAQEBBQADggEPADCCAQoCggEBAM12RR3H
SvnzFi8G0btJ0sOGU7DOaR5mCo3A6DhzjBSZRFgMwdyypoIzsrrKd8vsJDcZGpqA
hlQ5PvOxy9q1XKguH4qH3IB0jV30NWulXfw01xmocskUzQeGK2qO22jMgNDIoAa1
bLRsqV2ZIBLOMaPHvHDJorkThC8EckpoYNNqv7FMysAIXFodmPaK5zWsfE4sM4Es
3uQzIyymqZCRxIatUL4vHM1OtAhTUW18j7OVK/aNYcSiJ9bhLvPUZ63foEOoco3V
GGJdSZcwhdj0Ua7nG/d7FazX7d6ZXR5NmQtcBu6HKXXODqDEWTYDYL8WvppJSOLO
GW/sIHnNw+s0Et8CAwEAAaOCAQcwggEDMA4GA1UdDwEB/wQEAwIFoDAJBgNVHRME
AjAAMB0GA1UdJQQWMBQGCCsGAQUFBwMBBggrBgEFBQcDAjAdBgNVHQ4EFgQUKcna
h4DcIAfNwKlAaGmlgfszMZ8wHwYDVR0jBBgwFoAUvc1Smlo9ihCF35VWY+4rOnR0
5DMwPQYIKwYBBQUHAQEEMTAvMC0GCCsGAQUFBzAChiFodHRwOi8vZXhhbXBsZS5j
b20vY2EvY2x1c3Rlci5jZXIwMgYDVR0fBCswKTAnoCWgI4YhaHR0cDovL2V4YW1w
bGUuY29tL2NhL2NsdXN0ZXIuY3JsMBQGA1UdEQQNMAuCCWxvY2FsaG9zdDANBgkq
hkiG9w0BAQUFAAOCAQEAMbu40QPu16M3gw8Jye57MGBGJUOm9yjMenNLqSWDwhTZ
kT9f5mKpGG8g8aZAI/fvv76EAO3bTrHXCQ4CPY5mI4gesAxNc+CMYeIR2wR+e47y
0g2v8z2xE+6Zi5W3L2y5BDe5s11nkr6VBwCGsccZ8rqSPG3Zz6qjNMMFfVpNYso8
vKaFcWIA0+5QEpFX9LRY9MZxx1juh2iij0n8AsYHFtDuGA11VW+wwcNeX+2Rd7Z6
Qlj1RxzRrtMGpQjDvc909Zq3/Z2Y+mIsT1zuQWWZbRrB7tX22eLLMl+O6wMXF6Fo
hBPvYGIuVu10Y83lcsLC5/JKCVvEYvsZw43wCUf7HQ==
-----END CERTIFICATE-----
