Certificate:
    Data:
        Version: 3 (0x2)
        Serial Number: 10 (0xa)
        Signature Algorithm: sha256WithRSAEncryption
        Issuer: C=SE, O=Example, OU=Example Certificate Authority, CN=Example Cluster Authority
        Validity
            Not Before: Nov 26 11:09:47 2021 GMT
            Not After : May 19 11:09:47 2027 GMT
        Subject: C=SE, O=Example, OU=Example Cluster, CN=Server 9
        Subject Public Key Info:
            Public Key Algorithm: rsaEncryption
                RSA Public-Key: (2048 bit)
                Modulus:
                    00:c3:da:05:6d:f8:14:7d:be:54:1b:3e:f3:72:1d:
                    ae:f3:74:1f:79:b4:2b:37:6a:2a:19:ab:50:5c:a6:
                    0a:1d:7a:be:54:7e:99:89:87:b4:f0:ce:ce:23:79:
                    8a:ea:65:6c:28:51:ec:0d:a8:d0:80:1d:cf:52:72:
                    61:39:f2:fd:44:31:45:6a:e6:63:be:b5:5a:4a:98:
                    f6:23:0c:a9:b7:70:79:06:a1:34:7c:d3:a2:bd:c3:
                    73:6c:aa:04:b5:cc:d8:19:b4:32:28:7f:d5:c6:d2:
                    cc:79:38:54:32:10:b4:ae:a5:cb:2c:8e:75:54:ad:
                    73:13:0a:36:17:71:19:0f:c7:4a:ed:a1:cf:69:1e:
                    0a:cc:cf:a7:2d:ba:06:37:a0:cb:44:02:43:a4:11:
                    f4:df:3b:16:dc:2e:02:64:05:74:d9:4b:fc:a5:15:
                    9a:dd:1e:c1:b5:77:4e:e1:ec:cb:8f:9b:3c:bf:c5:
                    4a:48:12:c9:f2:2d:26:5e:49:48:40:3d:57:19:98:
                    17:e4:55:eb:bc:9b:9b:cd:da:2b:43:1d:64:22:2a:
                    f2:c9:73:a9:d3:e0:2c:ff:37:ac:fb:37:6d:b0:e0:
                    54:46:f3:c7:09:46:76:73:f8:ac:41:a5:37:7e:c1:
                    aa:ca:a1:92:76:75:0a:b0:bc:61:4f:2c:79:fb:a8:
                    c0:7b
                Exponent: 65537 (0x10001)
        X509v3 extensions:
            X509v3 Key Usage: critical
                Digital Signature, Key Encipherment
            X509v3 Basic Constraints: 
                CA:FALSE
            X509v3 Extended Key Usage: 
                TLS Web Server Authentication, TLS Web Client Authentication
            X509v3 Subject Key Identifier: 
                34:A2:3E:25:77:EB:D1:1B:91:88:26:95:05:62:16:52:C1:08:05:B9
            X509v3 Authority Key Identifier: 
                keyid:83:BA:16:EC:04:23:A7:40:34:8B:A0:3A:35:ED:CE:B6:E8:95:8E:2D

            Authority Information Access: 
                CA Issuers - URI:http://example.com/ca/cluster.cer

            X509v3 CRL Distribution Points: 

                Full Name:
                  URI:http://example.com/ca/cluster.crl

            X509v3 Subject Alternative Name: 
                DNS:localhost
    Signature Algorithm: sha256WithRSAEncryption
         0e:51:e4:54:ea:d6:ff:e3:2c:5a:d1:0b:08:36:d2:a9:49:75:
         8c:e0:5f:ce:97:a3:3f:c8:68:a1:3d:ec:75:ba:d0:e1:42:c3:
         da:29:9d:c1:ef:b2:9d:96:c4:71:eb:cb:26:04:9e:d7:83:84:
         99:a1:3b:65:51:f2:73:99:47:7c:72:6b:e4:bd:d6:3b:ce:d4:
         59:cd:72:51:a3:49:7d:f6:97:db:72:24:1a:c6:c3:a9:4e:64:
         e1:6d:96:2d:87:49:71:e8:41:61:06:cb:e0:40:ce:36:ac:3c:
         af:6e:73:31:c5:2b:08:7e:ac:f9:2d:14:a5:e8:88:41:ce:20:
         71:85:55:b8:24:7f:4c:71:71:63:98:d2:0c:ca:1e:b0:a0:9a:
         bc:7a:3f:26:ee:f8:80:81:8d:1e:20:67:fd:00:36:5a:3f:2e:
         11:5e:b0:21:d9:40:a2:ea:02:5f:c6:b0:9e:3e:b5:2f:45:bc:
         aa:ae:29:87:67:16:89:d0:f1:d6:58:17:9a:27:92:a8:ae:ae:
         d1:66:9e:84:7c:7e:02:ca:fa:ef:a6:2c:ca:78:7e:1b:40:39:
         61:9c:0d:e2:d1:49:fc:3f:9d:01:4d:eb:d1:9e:9f:35:44:15:
         a2:55:01:db:77:2b:c4:a8:78:d9:cb:fc:b5:67:a6:f9:5f:32:
         f2:3f:2d:fb
-----BEGIN CERTIFICATE-----
MIIEOzCCAyOgAwIBAgIBCjANBgkqhkiG9w0BAQsFADBrMQswCQYDVQQGEwJTRTEQ
MA4GA1UECgwHRXhhbXBsZTEmMCQGA1UECwwdRXhhbXBsZSBDZXJ0aWZpY2F0ZSBB
dXRob3JpdHkxIjAgBgNVBAMMGUV4YW1wbGUgQ2x1c3RlciBBdXRob3JpdHkwHhcN
MjExMTI2MTEwOTQ3WhcNMjcwNTE5MTEwOTQ3WjBMMQswCQYDVQQGEwJTRTEQMA4G
A1UECgwHRXhhbXBsZTEYMBYGA1UECwwPRXhhbXBsZSBDbHVzdGVyMREwDwYDVQQD
DAhTZXJ2ZXIgOTCCASIwDQYJKoZIhvcNAQEBBQADggEPADCCAQoCggEBAMPaBW34
FH2+VBs+83IdrvN0H3m0KzdqKhmrUFymCh16vlR+mYmHtPDOziN5iuplbChR7A2o
0IAdz1JyYTny/UQxRWrmY761WkqY9iMMqbdweQahNHzTor3Dc2yqBLXM2Bm0Mih/
1cbSzHk4VDIQtK6lyyyOdVStcxMKNhdxGQ/HSu2hz2keCszPpy26Bjegy0QCQ6QR
9N87FtwuAmQFdNlL/KUVmt0ewbV3TuHsy4+bPL/FSkgSyfItJl5JSEA9VxmYF+RV
67ybm83aK0MdZCIq8slzqdPgLP83rPs3bbDgVEbzxwlGdnP4rEGlN37BqsqhknZ1
CrC8YU8sefuowHsCAwEAAaOCAQcwggEDMA4GA1UdDwEB/wQEAwIFoDAJBgNVHRME
AjAAMB0GA1UdJQQWMBQGCCsGAQUFBwMBBggrBgEFBQcDAjAdBgNVHQ4EFgQUNKI+
JXfr0RuRiCaVBWIWUsEIBbkwHwYDVR0jBBgwFoAUg7oW7AQjp0A0i6A6Ne3OtuiV
ji0wPQYIKwYBBQUHAQEEMTAvMC0GCCsGAQUFBzAChiFodHRwOi8vZXhhbXBsZS5j
b20vY2EvY2x1c3Rlci5jZXIwMgYDVR0fBCswKTAnoCWgI4YhaHR0cDovL2V4YW1w
bGUuY29tL2NhL2NsdXN0ZXIuY3JsMBQGA1UdEQQNMAuCCWxvY2FsaG9zdDANBgkq
hkiG9w0BAQsFAAOCAQEADlHkVOrW/+MsWtELCDbSqUl1jOBfzpejP8hooT3sdbrQ
4ULD2imdwe+ynZbEcevLJgSe14OEmaE7ZVHyc5lHfHJr5L3WO87UWc1yUaNJffaX
23IkGsbDqU5k4W2WLYdJcehBYQbL4EDONqw8r25zMcUrCH6s+S0UpeiIQc4gcYVV
uCR/THFxY5jSDMoesKCavHo/Ju74gIGNHiBn/QA2Wj8uEV6wIdlAouoCX8awnj61
L0W8qq4ph2cWidDx1lgXmieSqK6u0WaehHx+Asr676Ysynh+G0A5YZwN4tFJ/D+d
AU3r0Z6fNUQVolUB23crxKh42cv8tWem+V8y8j8t+w==
-----END CERTIFICATE-----
