Certificate:
    Data:
        Version: 3 (0x2)
        Serial Number: 11 (0xb)
    Signature Algorithm: sha1WithRSAEncryption
        Issuer: C=SE, O=Example, OU=Example Certificate Authority, CN=Example Cluster Authority
        Validity
            Not Before: Mar 13 11:43:00 2018 GMT
            Not After : Sep  3 11:43:00 2023 GMT
        Subject: C=SE, O=Example, OU=Example Cluster, CN=Server 10
        Subject Public Key Info:
            Public Key Algorithm: rsaEncryption
                Public-Key: (2048 bit)
                Modulus:
                    00:a4:60:55:98:9a:af:b7:d9:af:bc:16:b4:97:ec:
                    8d:22:e3:10:04:19:97:ee:a5:59:e3:06:f7:5a:d6:
                    14:f1:07:e3:9d:f7:c4:ce:4e:a4:ed:6f:a1:a3:2c:
                    42:fd:31:a9:43:58:88:bb:3b:0e:2f:13:77:0a:c0:
                    7d:f9:ef:2e:61:62:52:fd:57:20:48:1f:7c:23:7c:
                    be:53:fe:fb:26:38:eb:5e:7b:dd:d7:5e:1b:6e:e6:
                    ef:ae:be:58:2e:b9:88:a6:83:43:a4:0a:6e:6c:3f:
                    12:06:82:6f:d9:40:cb:cc:48:87:09:80:31:a7:cb:
                    9c:ab:dc:20:a3:11:0b:01:fc:06:16:37:73:62:0e:
                    04:7b:fd:b4:58:e6:ac:14:6e:22:0d:af:79:60:a6:
                    e8:36:d0:0e:59:ac:2c:61:98:94:a5:45:fb:2a:92:
                    95:df:fd:87:ed:cb:ca:dc:0c:c2:86:84:bb:50:d0:
                    c9:80:fe:67:19:85:55:bb:7a:fb:47:29:6f:e3:c5:
                    f2:08:e8:b6:8b:de:eb:c5:61:7e:a8:5f:0d:d6:fc:
                    0e:f8:60:67:12:75:b1:19:b8:e3:d2:9a:fc:aa:ca:
                    97:95:14:59:d9:68:95:d7:b4:fe:b7:73:b2:66:d9:
                    03:2d:52:51:a7:9f:96:a2:06:90:da:9d:3c:ea:ad:
                    63:07
                Exponent: 65537 (0x10001)
        X509v3 extensions:
            X509v3 Key Usage: critical
                Digital Signature, Key Encipherment
            X509v3 Basic Constraints: 
                CA:FALSE
            X509v3 Extended Key Usage: 
                TLS Web Server Authentication, TLS Web Client Authentication
            X509v3 Subject Key Identifier: 
                DC:08:FF:5D:00:93:59:A2:AB:39:E2:EF:7B:1F:A9:57:64:4A:64:31
            X509v3 Authority Key Identifier: 
                keyid:D0:17:85:14:AC:81:1D:29:A4:75:73:01:87:5C:40:D2:84:68:3D:4F

            Authority Information Access: 
                CA Issuers - URI:http://example.com/ca/cluster.cer

            X509v3 CRL Distribution Points: 

                Full Name:
                  URI:http://example.com/ca/cluster.crl

    Signature Algorithm: sha1WithRSAEncryption
         0d:37:b2:e7:7e:4c:de:d4:d0:d5:05:66:83:3b:2b:08:f8:d7:
         75:29:45:c5:69:6d:5e:75:28:d1:1e:5e:bb:3a:d0:af:e0:15:
         14:b7:e0:65:32:ef:39:fb:5d:13:18:33:55:85:af:a2:70:5c:
         ac:d8:58:65:30:36:16:42:9f:a3:25:78:fe:db:bf:56:a5:ab:
         57:04:10:96:1b:a9:66:79:fd:95:ce:a1:d3:dc:36:f5:48:81:
         1b:01:18:ae:1d:5a:b9:41:ea:91:94:24:66:60:53:f2:81:56:
         a1:ac:4f:7f:b4:07:74:70:a3:be:1d:87:3c:4a:12:25:1f:b3:
         ad:32:67:9e:09:ae:ba:88:4f:00:0b:eb:fb:9a:16:f9:97:83:
         73:69:c3:3d:e9:b5:50:55:f4:6f:5f:d8:51:5f:5b:3a:f6:1e:
         13:b7:e5:74:d0:36:8a:73:22:ba:58:8d:c6:b0:30:9f:3b:0a:
         bf:52:f3:d3:af:c9:e8:91:6d:38:c9:f6:d0:c2:ca:51:54:67:
         06:34:86:f8:b4:1f:d6:96:22:25:cf:f5:ed:b3:b6:3e:63:c0:
         c4:f9:14:31:6a:35:e2:39:09:5b:dd:46:87:54:50:c7:94:d6:
         a1:88:74:a7:32:a8:eb:9f:50:4e:e4:ed:b7:d3:e0:68:f5:d7:
         bb:a5:94:e5
-----BEGIN CERTIFICATE-----
MIIEJDCCAwygAwIBAgIBCzANBgkqhkiG9w0BAQUFADBrMQswCQYDVQQGEwJTRTEQ
MA4GA1UECgwHRXhhbXBsZTEmMCQGA1UECwwdRXhhbXBsZSBDZXJ0aWZpY2F0ZSBB
dXRob3JpdHkxIjAgBgNVBAMMGUV4YW1wbGUgQ2x1c3RlciBBdXRob3JpdHkwHhcN
MTgwMzEzMTE0MzAwWhcNMjMwOTAzMTE0MzAwWjBNMQswCQYDVQQGEwJTRTEQMA4G
A1UECgwHRXhhbXBsZTEYMBYGA1UECwwPRXhhbXBsZSBDbHVzdGVyMRIwEAYDVQQD
DAlTZXJ2ZXIgMTAwggEiMA0GCSqGSIb3DQEBAQUAA4IBDwAwggEKAoIBAQCkYFWY
mq+32a+8FrSX7I0i4xAEGZfupVnjBvda1hTxB+Od98TOTqTtb6GjLEL9MalDWIi7
Ow4vE3cKwH357y5hYlL9VyBIH3wjfL5T/vsmOOtee93XXhtu5u+uvlguuYimg0Ok
Cm5sPxIGgm/ZQMvMSIcJgDGny5yr3CCjEQsB/AYWN3NiDgR7/bRY5qwUbiINr3lg
pug20A5ZrCxhmJSlRfsqkpXf/Yfty8rcDMKGhLtQ0MmA/mcZhVW7evtHKW/jxfII
6LaL3uvFYX6oXw3W/A74YGcSdbEZuOPSmvyqypeVFFnZaJXXtP63c7Jm2QMtUlGn
n5aiBpDanTzqrWMHAgMBAAGjgfAwge0wDgYDVR0PAQH/BAQDAgWgMAkGA1UdEwQC
MAAwHQYDVR0lBBYwFAYIKwYBBQUHAwEGCCsGAQUFBwMCMB0GA1UdDgQWBBTcCP9d
AJNZoqs54u97H6lXZEpkMTAfBgNVHSMEGDAWgBTQF4UUrIEdKaR1cwGHXEDShGg9
TzA9BggrBgEFBQcBAQQxMC8wLQYIKwYBBQUHMAKGIWh0dHA6Ly9leGFtcGxlLmNv
bS9jYS9jbHVzdGVyLmNlcjAyBgNVHR8EKzApMCegJaAjhiFodHRwOi8vZXhhbXBs
ZS5jb20vY2EvY2x1c3Rlci5jcmwwDQYJKoZIhvcNAQEFBQADggEBAA03sud+TN7U
0NUFZoM7Kwj413UpRcVpbV51KNEeXrs60K/gFRS34GUy7zn7XRMYM1WFr6JwXKzY
WGUwNhZCn6MleP7bv1alq1cEEJYbqWZ5/ZXOodPcNvVIgRsBGK4dWrlB6pGUJGZg
U/KBVqGsT3+0B3Rwo74dhzxKEiUfs60yZ54JrrqITwAL6/uaFvmXg3Npwz3ptVBV
9G9f2FFfWzr2HhO35XTQNopzIrpYjcawMJ87Cr9S89OvyeiRbTjJ9tDCylFUZwY0
hvi0H9aWIiXP9e2ztj5jwMT5FDFqNeI5CVvdRodUUMeU1qGIdKcyqOufUE7k7bfT
4Gj117ullOU=
-----END CERTIFICATE-----
