Certificate:
    Data:
        Version: 3 (0x2)
        Serial Number: 12 (0xc)
    Signature Algorithm: sha1WithRSAEncryption
        Issuer: C=SE, O=Example, OU=Example Certificate Authority, CN=Example Cluster Authority
        Validity
            Not Before: Mar 13 11:43:00 2018 GMT
            Not After : Sep  3 11:43:00 2023 GMT
        Subject: C=SE, O=Example, OU=Example Cluster, CN=Server 11
        Subject Public Key Info:
            Public Key Algorithm: rsaEncryption
                Public-Key: (2048 bit)
                Modulus:
                    00:d4:fe:8e:9c:80:51:11:f7:94:56:30:25:df:09:
                    65:89:63:91:30:86:9a:79:4b:2e:a4:b1:8e:c7:4d:
                    b8:c5:ea:ec:cf:a5:85:6f:6f:86:4e:38:89:b6:d8:
                    bc:2d:88:25:dd:29:60:e9:b9:7f:f3:a1:a5:a8:5b:
                    6f:eb:1e:d2:c2:6c:87:92:1f:c6:cc:b0:71:a2:69:
                    b9:06:5c:c7:77:ce:63:39:db:04:26:66:78:47:74:
                    65:49:82:5c:a3:01:05:4e:ac:b2:2f:89:50:10:61:
                    a4:9b:ab:85:d0:b3:30:f2:b0:55:33:61:00:32:63:
                    0f:47:82:2f:63:71:f0:b9:1d:13:0b:2c:24:0c:f4:
                    98:37:80:46:ee:b2:06:c9:0c:a1:89:c8:36:1b:51:
                    99:b5:12:2d:e8:5b:c5:5e:38:3d:df:d4:5b:28:cc:
                    7f:54:d6:1d:01:44:99:03:7a:83:88:11:5e:f1:02:
                    8c:31:7b:a3:90:c7:bb:86:df:8b:c9:a4:8f:84:15:
                    f0:ab:af:48:17:8c:6d:9a:19:0e:79:6a:ae:9b:f7:
                    02:19:61:b5:a2:58:1b:d0:c2:f6:c9:f1:b5:81:1c:
                    1b:2f:e1:a8:3e:d3:de:e6:57:98:ec:67:b0:23:d4:
                    b9:1c:dc:17:ee:c9:b2:2e:82:b6:2d:53:27:d6:1f:
                    57:49
                Exponent: 65537 (0x10001)
        X509v3 extensions:
            X509v3 Key Usage: critical
                Digital Signature, Key Encipherment
            X509v3 Basic Constraints: 
                CA:FALSE
            X509v3 Extended Key Usage: 
                TLS Web Server Authentication, TLS Web Client Authentication
            X509v3 Subject Key Identifier: 
                2B:BB:52:6F:9B:74:08:1B:07:7B:59:D3:B5:7D:0B:89:FA:80:58:A4
            X509v3 Authority Key Identifier: 
                keyid:D0:17:85:14:AC:81:1D:29:A4:75:73:01:87:5C:40:D2:84:68:3D:4F

            Authority Information Access: 
                CA Issuers - URI:http://example.com/ca/cluster.cer

            X509v3 CRL Distribution Points: 

                Full Name:
                  URI:http://example.com/ca/cluster.crl

    Signature Algorithm: sha1WithRSAEncryption
         4a:d4:60:06:45:a6:e1:6f:36:a5:2b:a2:7b:fd:75:5d:d5:f8:
         d7:d4:72:30:e1:48:83:b3:57:6c:63:0c:89:cc:a6:ec:68:ca:
         af:c8:68:40:6e:9a:27:00:da:0a:71:08:34:8a:6b:09:63:89:
         98:2e:10:f6:25:de:ea:ff:87:88:84:23:83:fc:3d:7f:f4:49:
         93:e4:6b:21:9e:c5:13:66:f9:cd:36:c7:79:e4:01:5b:66:06:
         85:0c:b9:3b:8a:92:1a:7c:82:34:d0:d9:e8:e8:12:33:c1:4b:
         84:3a:9b:70:63:ed:de:42:fb:9d:28:3f:6c:89:f9:c0:2b:f3:
         f9:7a:17:8b:6e:c6:74:9d:b6:05:4c:23:48:bd:80:5d:80:dd:
         cd:59:50:93:63:aa:a6:c5:03:01:eb:5b:b3:93:63:64:c4:81:
         32:53:bc:fd:bb:85:79:c9:4b:7a:17:75:6d:1b:a3:31:b1:3b:
         97:23:b1:d8:21:81:d0:ca:96:c1:e7:8c:d6:eb:3e:aa:dc:c6:
         01:69:f9:6d:52:b0:99:f5:ec:98:32:6e:77:db:f5:84:d9:75:
         fa:66:6b:0f:18:83:9f:00:2a:6f:0e:71:25:8e:45:50:39:75:
         c5:bd:cb:7a:9f:8b:d4:3d:95:5d:86:ba:e5:51:db:d7:d1:8a:
         cd:2d:a6:3c
-----BEGIN CERTIFICATE-----
MIIEJDCCAwygAwIBAgIBDDANBgkqhkiG9w0BAQUFADBrMQswCQYDVQQGEwJTRTEQ
MA4GA1UECgwHRXhhbXBsZTEmMCQGA1UECwwdRXhhbXBsZSBDZXJ0aWZpY2F0ZSBB
dXRob3JpdHkxIjAgBgNVBAMMGUV4YW1wbGUgQ2x1c3RlciBBdXRob3JpdHkwHhcN
MTgwMzEzMTE0MzAwWhcNMjMwOTAzMTE0MzAwWjBNMQswCQYDVQQGEwJTRTEQMA4G
A1UECgwHRXhhbXBsZTEYMBYGA1UECwwPRXhhbXBsZSBDbHVzdGVyMRIwEAYDVQQD
DAlTZXJ2ZXIgMTEwggEiMA0GCSqGSIb3DQEBAQUAA4IBDwAwggEKAoIBAQDU/o6c
gFER95RWMCXfCWWJY5Ewhpp5Sy6ksY7HTbjF6uzPpYVvb4ZOOIm22LwtiCXdKWDp
uX/zoaWoW2/rHtLCbIeSH8bMsHGiabkGXMd3zmM52wQmZnhHdGVJglyjAQVOrLIv
iVAQYaSbq4XQszDysFUzYQAyYw9Hgi9jcfC5HRMLLCQM9Jg3gEbusgbJDKGJyDYb
UZm1Ei3oW8VeOD3f1FsozH9U1h0BRJkDeoOIEV7xAowxe6OQx7uG34vJpI+EFfCr
r0gXjG2aGQ55aq6b9wIZYbWiWBvQwvbJ8bWBHBsv4ag+097mV5jsZ7Aj1Lkc3Bfu
ybIugrYtUyfWH1dJAgMBAAGjgfAwge0wDgYDVR0PAQH/BAQDAgWgMAkGA1UdEwQC
MAAwHQYDVR0lBBYwFAYIKwYBBQUHAwEGCCsGAQUFBwMCMB0GA1UdDgQWBBQru1Jv
m3QIGwd7WdO1fQuJ+oBYpDAfBgNVHSMEGDAWgBTQF4UUrIEdKaR1cwGHXEDShGg9
TzA9BggrBgEFBQcBAQQxMC8wLQYIKwYBBQUHMAKGIWh0dHA6Ly9leGFtcGxlLmNv
bS9jYS9jbHVzdGVyLmNlcjAyBgNVHR8EKzApMCegJaAjhiFodHRwOi8vZXhhbXBs
ZS5jb20vY2EvY2x1c3Rlci5jcmwwDQYJKoZIhvcNAQEFBQADggEBAErUYAZFpuFv
NqUronv9dV3V+NfUcjDhSIOzV2xjDInMpuxoyq/IaEBumicA2gpxCDSKawljiZgu
EPYl3ur/h4iEI4P8PX/0SZPkayGexRNm+c02x3nkAVtmBoUMuTuKkhp8gjTQ2ejo
EjPBS4Q6m3Bj7d5C+50oP2yJ+cAr8/l6F4tuxnSdtgVMI0i9gF2A3c1ZUJNjqqbF
AwHrW7OTY2TEgTJTvP27hXnJS3oXdW0bozGxO5cjsdghgdDKlsHnjNbrPqrcxgFp
+W1SsJn17Jgybnfb9YTZdfpmaw8Yg58AKm8OcSWORVA5dcW9y3qfi9Q9lV2GuuVR
29fRis0tpjw=
-----END CERTIFICATE-----
