Certificate:
    Data:
        Version: 3 (0x2)
        Serial Number: 2 (0x2)
    Signature Algorithm: sha1WithRSAEncryption
        Issuer: C=SE, O=Example, OU=Example Certificate Authority, CN=Example Root CA
        Validity
            Not Before: Jul  9 14:29:06 2018 GMT
            Not After : Jul  6 14:29:06 2028 GMT
        Subject: C=SE, O=Example, OU=Example Certificate Authority, CN=Example Cluster Authority
        Subject Public Key Info:
            Public Key Algorithm: rsaEncryption
                Public-Key: (2048 bit)
                Modulus:
                    00:b7:bc:a7:e6:84:83:62:b5:5d:8b:49:02:3c:83:
                    b1:c7:ac:34:15:35:eb:2a:d1:9e:06:c1:b5:22:a8:
                    9d:b9:16:ea:1f:29:4b:3f:59:be:b7:73:81:58:0c:
                    93:eb:56:dc:c1:f5:34:73:e9:f7:b3:50:c5:10:7e:
                    27:cc:f9:bc:9b:c2:c8:40:5b:07:48:e5:ed:7e:69:
                    cf:48:37:ca:d4:10:3c:3a:bc:fd:75:1d:ab:81:12:
                    66:97:a3:71:26:3a:3f:8d:0b:99:ec:3b:49:1a:7e:
                    3e:0a:84:a5:b0:23:fb:cf:29:99:f3:d4:52:d2:e3:
                    d4:8b:91:ff:0d:b5:86:44:aa:bc:68:ac:a2:8a:b3:
                    12:20:e1:1e:6b:c5:8c:e3:e9:24:ef:07:90:0b:a1:
                    74:17:c9:6c:dd:73:bc:39:18:c6:14:5d:07:bb:e2:
                    97:44:8b:04:63:65:8c:58:dd:02:24:47:f6:d5:21:
                    ad:7c:0b:ee:ef:4a:29:8b:26:66:17:b2:cf:28:14:
                    6e:4a:f2:c7:74:80:d5:72:3e:44:39:1c:5b:cf:11:
                    f6:26:58:9f:8e:55:77:97:a8:bd:6d:a8:5a:7b:25:
                    42:77:2f:50:9f:01:26:1c:9c:31:22:2b:ad:ba:c9:
                    24:f3:cd:51:ac:61:70:8a:7f:c8:6b:b7:4c:04:a7:
                    04:5f
                Exponent: 65537 (0x10001)
        X509v3 extensions:
            X509v3 Key Usage: critical
                Certificate Sign, CRL Sign
            X509v3 Basic Constraints: critical
                CA:TRUE, pathlen:0
            X509v3 Subject Key Identifier: 
                BD:CD:52:9A:5A:3D:8A:10:85:DF:95:56:63:EE:2B:3A:74:74:E4:33
            X509v3 Authority Key Identifier: 
                keyid:FA:AA:C3:8C:6A:29:DC:E9:8E:7D:AC:9A:F2:02:8E:8E:4F:BA:7A:1D

            Authority Information Access: 
                CA Issuers - URI:http://example.com/ca/root.cer

            X509v3 CRL Distribution Points: 

                Full Name:
                  URI:http://example.com/ca/root.crl

    Signature Algorithm: sha1WithRSAEncryption
         68:14:ae:ae:2b:83:c5:e7:96:05:73:18:84:49:3d:2f:c0:3d:
         c0:fd:83:b2:ef:50:b7:a1:d3:0b:69:27:d9:00:34:a9:f2:85:
         60:67:e9:04:e8:95:2e:f5:ea:ab:65:a7:d7:29:c8:4a:8a:7e:
         6f:b1:db:7d:31:e1:8d:0b:ec:a1:65:07:74:13:1d:b4:af:97:
         09:c2:15:79:b0:78:c4:bc:3f:a5:fd:a5:07:56:65:b4:0b:41:
         9e:ab:39:0d:26:96:75:5b:73:2b:a9:2a:4c:fb:e8:7c:d0:e8:
         06:60:c6:fb:a0:5d:58:e2:a4:3c:df:7a:38:1b:a3:a1:2b:06:
         ba:ff:8e:a8:bc:19:dd:af:be:ca:2c:40:ce:c8:73:97:ce:24:
         21:e8:c2:1e:81:b1:4e:16:8a:06:b9:01:64:0a:50:66:ac:b2:
         9b:da:3e:9e:19:96:43:7d:c9:29:4f:2e:49:0f:0c:2c:4d:53:
         55:83:3f:4f:ba:8a:50:d5:70:bf:08:77:8b:50:27:22:43:24:
         a9:06:31:2c:c3:e1:43:68:18:9b:47:67:6e:ce:72:39:d5:8d:
         d5:22:ab:1b:aa:52:2e:16:32:83:81:46:42:7d:23:a0:b4:c8:
         08:16:c1:be:2b:62:8c:82:ea:1a:95:3d:a3:44:77:47:6f:3b:
         06:60:ec:0c
-----BEGIN CERTIFICATE-----
MIIEHDCCAwSgAwIBAgIBAjANBgkqhkiG9w0BAQUFADBhMQswCQYDVQQGEwJTRTEQ
MA4GA1UECgwHRXhhbXBsZTEmMCQGA1UECwwdRXhhbXBsZSBDZXJ0aWZpY2F0ZSBB
dXRob3JpdHkxGDAWBgNVBAMMD0V4YW1wbGUgUm9vdCBDQTAeFw0xODA3MDkxNDI5
MDZaFw0yODA3MDYxNDI5MDZaMGsxCzAJBgNVBAYTAlNFMRAwDgYDVQQKDAdFeGFt
cGxlMSYwJAYDVQQLDB1FeGFtcGxlIENlcnRpZmljYXRlIEF1dGhvcml0eTEiMCAG
A1UEAwwZRXhhbXBsZSBDbHVzdGVyIEF1dGhvcml0eTCCASIwDQYJKoZIhvcNAQEB
BQADggEPADCCAQoCggEBALe8p+aEg2K1XYtJAjyDscesNBU16yrRngbBtSKonbkW
6h8pSz9ZvrdzgVgMk+tW3MH1NHPp97NQxRB+J8z5vJvCyEBbB0jl7X5pz0g3ytQQ
PDq8/XUdq4ESZpejcSY6P40Lmew7SRp+PgqEpbAj+88pmfPUUtLj1IuR/w21hkSq
vGisooqzEiDhHmvFjOPpJO8HkAuhdBfJbN1zvDkYxhRdB7vil0SLBGNljFjdAiRH
9tUhrXwL7u9KKYsmZheyzygUbkryx3SA1XI+RDkcW88R9iZYn45Vd5eovW2oWnsl
QncvUJ8BJhycMSIrrbrJJPPNUaxhcIp/yGu3TASnBF8CAwEAAaOB1DCB0TAOBgNV
HQ8BAf8EBAMCAQYwEgYDVR0TAQH/BAgwBgEB/wIBADAdBgNVHQ4EFgQUvc1Smlo9
ihCF35VWY+4rOnR05DMwHwYDVR0jBBgwFoAU+qrDjGop3OmOfaya8gKOjk+6eh0w
OgYIKwYBBQUHAQEELjAsMCoGCCsGAQUFBzAChh5odHRwOi8vZXhhbXBsZS5jb20v
Y2Evcm9vdC5jZXIwLwYDVR0fBCgwJjAkoCKgIIYeaHR0cDovL2V4YW1wbGUuY29t
L2NhL3Jvb3QuY3JsMA0GCSqGSIb3DQEBBQUAA4IBAQBoFK6uK4PF55YFcxiEST0v
wD3A/YOy71C3odMLaSfZADSp8oVgZ+kE6JUu9eqrZafXKchKin5vsdt9MeGNC+yh
ZQd0Ex20r5cJwhV5sHjEvD+l/aUHVmW0C0GeqzkNJpZ1W3MrqSpM++h80OgGYMb7
oF1Y4qQ833o4G6OhKwa6/46ovBndr77KLEDOyHOXziQh6MIegbFOFooGuQFkClBm
rLKb2j6eGZZDfckpTy5JDwwsTVNVgz9PuopQ1XC/CHeLUCciQySpBjEsw+FDaBib
R2duznI51Y3VIqsbqlIuFjKDgUZCfSOgtMgIFsG+K2KMguoalT2jRHdHbzsGYOwM
-----END CERTIFICATE-----
