Certificate:
    Data:
        Version: 3 (0x2)
        Serial Number: 2 (0x2)
    Signature Algorithm: sha1WithRSAEncryption
        Issuer: C=SE, O=Example, OU=Example Certificate Authority, CN=Example Root CA
        Validity
            Not Before: Mar 13 11:42:59 2018 GMT
            Not After : Mar 10 11:42:59 2028 GMT
        Subject: C=SE, O=Example, OU=Example Certificate Authority, CN=Example Cluster Authority
        Subject Public Key Info:
            Public Key Algorithm: rsaEncryption
                Public-Key: (2048 bit)
                Modulus:
                    00:b8:e1:6f:17:60:e5:e7:a8:32:68:be:9f:c9:78:
                    8d:26:5d:e0:6c:ae:11:c9:4c:84:ea:5a:ba:1b:60:
                    0c:6b:78:0d:55:5f:22:c6:10:43:f3:85:e6:8e:25:
                    a8:75:0a:3c:48:65:fe:45:bb:af:15:c0:e9:3e:59:
                    0e:e7:d9:4e:a5:5f:85:cd:e3:e8:f9:e7:50:2e:00:
                    b4:ed:d1:08:06:04:87:7f:a9:de:e4:1f:6a:79:ad:
                    9a:5b:9e:42:cb:80:2c:4f:a6:37:8b:92:3b:89:1a:
                    77:b7:1f:8b:51:f0:37:61:a1:74:ff:cc:1c:5d:f4:
                    a8:3c:7d:d1:95:b6:62:85:e4:4a:8b:20:7f:dd:17:
                    93:ac:29:2c:e0:f2:df:ca:4d:d7:71:00:f2:c4:a6:
                    89:f1:65:58:9e:68:48:7c:cb:84:60:97:84:bb:b6:
                    3d:ea:c6:19:96:21:06:11:a3:26:ae:dc:c1:6d:6f:
                    ae:00:99:2b:4c:b9:3c:72:59:53:6e:27:fb:c6:31:
                    d8:1e:ff:1d:cd:28:fa:a3:4f:d5:8d:96:0b:e3:76:
                    91:51:bc:4a:58:08:98:be:32:45:56:39:51:a2:4f:
                    4a:a2:1d:39:15:17:c9:ef:89:e8:60:aa:e3:ae:19:
                    5f:1a:85:6a:40:02:47:f9:e2:88:02:46:6a:ab:ce:
                    4e:93
                Exponent: 65537 (0x10001)
        X509v3 extensions:
            X509v3 Key Usage: critical
                Certificate Sign, CRL Sign
            X509v3 Basic Constraints: critical
                CA:TRUE, pathlen:0
            X509v3 Subject Key Identifier: 
                D0:17:85:14:AC:81:1D:29:A4:75:73:01:87:5C:40:D2:84:68:3D:4F
            X509v3 Authority Key Identifier: 
                keyid:E1:28:F4:2B:B0:F4:89:C8:32:07:59:DE:06:90:87:49:ED:73:18:0E

            Authority Information Access: 
                CA Issuers - URI:http://example.com/ca/root.cer

            X509v3 CRL Distribution Points: 

                Full Name:
                  URI:http://example.com/ca/root.crl

    Signature Algorithm: sha1WithRSAEncryption
         4f:34:7f:72:57:99:43:85:69:6b:78:66:55:33:3c:85:90:81:
         ea:fc:ff:b1:d8:4c:51:36:65:7c:8f:c9:36:1d:16:08:64:bc:
         c0:22:ea:a6:94:73:fa:f0:b1:41:70:a5:df:8d:27:26:1b:70:
         67:26:9a:57:17:d0:0b:5b:01:ba:7a:b3:50:f3:40:f3:76:d4:
         be:ce:4b:84:e7:a2:78:fa:ca:1c:ab:62:cf:9c:5d:1c:eb:46:
         4a:6e:ae:64:b5:ea:76:9b:55:16:3e:55:15:72:32:a7:6c:4c:
         25:40:80:0b:ba:cd:a8:e6:96:01:ca:08:a0:2f:91:d0:b7:12:
         86:d0:02:93:9e:ce:18:81:59:67:a9:f9:79:be:90:8b:90:7e:
         1b:3c:83:f0:4a:16:b3:48:1f:9c:63:7e:39:16:a2:f4:04:99:
         57:87:61:36:56:1c:2f:22:9d:e8:02:0e:f0:43:40:50:d5:12:
         31:78:3e:61:7e:10:f5:dd:04:de:ac:85:79:74:27:3c:de:a3:
         5a:f1:7b:9e:0e:f6:a6:f8:ba:74:dc:83:56:91:5e:35:21:50:
         01:e0:87:f2:1a:72:62:fa:92:59:1f:05:d6:10:56:ed:a9:cb:
         4a:b6:48:0c:51:65:95:04:09:d2:d8:fc:34:52:7c:f1:fe:3e:
         be:23:80:8c
-----BEGIN CERTIFICATE-----
MIIEHDCCAwSgAwIBAgIBAjANBgkqhkiG9w0BAQUFADBhMQswCQYDVQQGEwJTRTEQ
MA4GA1UECgwHRXhhbXBsZTEmMCQGA1UECwwdRXhhbXBsZSBDZXJ0aWZpY2F0ZSBB
dXRob3JpdHkxGDAWBgNVBAMMD0V4YW1wbGUgUm9vdCBDQTAeFw0xODAzMTMxMTQy
NTlaFw0yODAzMTAxMTQyNTlaMGsxCzAJBgNVBAYTAlNFMRAwDgYDVQQKDAdFeGFt
cGxlMSYwJAYDVQQLDB1FeGFtcGxlIENlcnRpZmljYXRlIEF1dGhvcml0eTEiMCAG
A1UEAwwZRXhhbXBsZSBDbHVzdGVyIEF1dGhvcml0eTCCASIwDQYJKoZIhvcNAQEB
BQADggEPADCCAQoCggEBALjhbxdg5eeoMmi+n8l4jSZd4GyuEclMhOpauhtgDGt4
DVVfIsYQQ/OF5o4lqHUKPEhl/kW7rxXA6T5ZDufZTqVfhc3j6PnnUC4AtO3RCAYE
h3+p3uQfanmtmlueQsuALE+mN4uSO4kad7cfi1HwN2GhdP/MHF30qDx90ZW2YoXk
Sosgf90Xk6wpLODy38pN13EA8sSmifFlWJ5oSHzLhGCXhLu2PerGGZYhBhGjJq7c
wW1vrgCZK0y5PHJZU24n+8Yx2B7/Hc0o+qNP1Y2WC+N2kVG8SlgImL4yRVY5UaJP
SqIdORUXye+J6GCq464ZXxqFakACR/niiAJGaqvOTpMCAwEAAaOB1DCB0TAOBgNV
HQ8BAf8EBAMCAQYwEgYDVR0TAQH/BAgwBgEB/wIBADAdBgNVHQ4EFgQU0BeFFKyB
HSmkdXMBh1xA0oRoPU8wHwYDVR0jBBgwFoAU4Sj0K7D0icgyB1neBpCHSe1zGA4w
OgYIKwYBBQUHAQEELjAsMCoGCCsGAQUFBzAChh5odHRwOi8vZXhhbXBsZS5jb20v
Y2Evcm9vdC5jZXIwLwYDVR0fBCgwJjAkoCKgIIYeaHR0cDovL2V4YW1wbGUuY29t
L2NhL3Jvb3QuY3JsMA0GCSqGSIb3DQEBBQUAA4IBAQBPNH9yV5lDhWlreGZVMzyF
kIHq/P+x2ExRNmV8j8k2HRYIZLzAIuqmlHP68LFBcKXfjScmG3BnJppXF9ALWwG6
erNQ80DzdtS+zkuE56J4+socq2LPnF0c60ZKbq5ktep2m1UWPlUVcjKnbEwlQIAL
us2o5pYBygigL5HQtxKG0AKTns4YgVlnqfl5vpCLkH4bPIPwShazSB+cY345FqL0
BJlXh2E2VhwvIp3oAg7wQ0BQ1RIxeD5hfhD13QTerIV5dCc83qNa8XueDvam+Lp0
3INWkV41IVAB4IfyGnJi+pJZHwXWEFbtqctKtkgMUWWVBAnS2Pw0Unzx/j6+I4CM
-----END CERTIFICATE-----
