Certificate:
    Data:
        Version: 3 (0x2)
        Serial Number: 2 (0x2)
        Signature Algorithm: sha1WithRSAEncryption
        Issuer: C=SE, O=Example, OU=Example Certificate Authority, CN=Example Root CA
        Validity
            Not Before: Jun 20 09:16:08 2017 GMT
            Not After : Jun 18 09:16:08 2027 GMT
        Subject: C=SE, O=Example, OU=Example Certificate Authority, CN=Example Cluster Authority
        Subject Public Key Info:
            Public Key Algorithm: rsaEncryption
            RSA Public Key: (2048 bit)
                Modulus (2048 bit):
                    00:e3:fb:52:54:18:6c:fc:f2:ee:cb:3c:e8:7d:1c:
                    d8:bc:6c:b9:a0:88:1c:48:79:d4:73:44:67:b4:b1:
                    67:50:98:8a:75:a9:21:86:b7:da:2b:76:6f:5d:31:
                    41:7b:ed:88:1d:01:28:44:29:8f:e8:06:e1:47:08:
                    2b:16:d4:fd:6d:74:62:a6:2c:60:bc:91:3d:53:8b:
                    30:3e:07:fd:c7:91:fb:5d:8e:48:7f:b6:13:06:a4:
                    36:e7:d5:5b:40:4e:bf:11:91:7c:c2:4a:a3:b8:b2:
                    d0:f1:b8:61:00:bb:8c:c4:92:26:3a:1d:26:26:41:
                    25:af:70:ac:83:28:79:fb:63:a1:7e:b9:0d:5e:a0:
                    27:99:28:7a:3d:b4:bd:92:b3:54:0b:76:54:66:31:
                    e1:67:b6:2a:ca:4d:c1:e7:3d:24:fd:6d:e8:b6:74:
                    55:80:f2:ab:21:e2:80:2d:e0:42:15:f8:70:74:94:
                    b7:92:df:14:d8:0a:00:4a:90:8a:27:3b:48:79:10:
                    89:3e:82:6c:2d:08:7a:9f:d5:c4:08:74:d4:01:aa:
                    46:b6:8a:f0:2b:6e:c5:9a:77:20:f3:50:19:f3:f9:
                    50:4b:bc:15:c4:21:df:5b:69:74:02:cb:01:77:ae:
                    60:08:f3:33:fe:6a:b3:10:7c:d7:d0:a5:70:1c:e1:
                    5c:77
                Exponent: 65537 (0x10001)
        X509v3 extensions:
            X509v3 Key Usage: critical
                Certificate Sign, CRL Sign
            X509v3 Basic Constraints: critical
                CA:TRUE, pathlen:0
            X509v3 Subject Key Identifier: 
                DB:AE:9D:4D:E7:B8:84:A6:E8:E8:2D:1B:AD:73:AE:2C:21:11:E0:2C
            X509v3 Authority Key Identifier: 
                keyid:73:4B:0D:24:2B:3B:85:63:12:57:4C:F2:94:5E:F7:63:61:B0:BF:D5

            Authority Information Access: 
                CA Issuers - URI:http://example.com/ca/root.cer

            X509v3 CRL Distribution Points: 
                URI:http://example.com/ca/root.crl

    Signature Algorithm: sha1WithRSAEncryption
        d4:92:95:f8:c2:e5:bb:1c:64:3c:86:89:6d:fa:e6:78:5f:52:
        dc:40:cb:02:ef:6e:54:6e:b3:01:69:e2:26:b7:29:3b:01:4b:
        54:01:14:21:74:5e:a8:ba:23:b1:c3:52:1a:ef:ee:10:c6:2a:
        30:28:69:4d:3f:0f:05:aa:57:24:61:e1:b2:9e:23:b8:71:a8:
        c7:8b:77:5b:12:a2:11:1c:8c:6d:6a:e7:c8:82:79:d8:bb:be:
        85:fc:56:85:f4:3d:7b:3c:68:08:45:d0:01:6e:6a:1b:9b:66:
        cc:53:76:2c:d5:85:2f:0a:cd:98:b8:80:c4:b3:b3:98:d8:89:
        f8:5b:7c:ff:e8:11:6e:1e:d7:b8:37:61:85:5f:53:62:a8:28:
        e8:f1:77:bf:f4:86:e3:75:27:96:ca:0c:e3:be:22:c9:9d:b6:
        b7:14:5f:5a:ad:82:7d:3c:1f:7a:41:9e:4d:cc:0d:e7:ee:02:
        b0:b9:14:fb:84:57:d6:69:45:ba:65:fb:64:96:5a:cb:ea:b9:
        3c:2e:a3:29:fc:9f:ba:6b:30:db:91:57:38:15:f8:d1:b0:bf:
        0e:24:70:ce:a9:01:1e:41:34:ef:2f:cd:c1:89:21:12:c7:b1:
        44:94:b4:67:97:e5:5a:20:e2:44:2e:c4:92:ac:84:fe:d8:6f:
        06:7f:3e:b3
-----BEGIN CERTIFICATE-----
MIIEHDCCAwSgAwIBAgIBAjANBgkqhkiG9w0BAQUFADBhMQswCQYDVQQGEwJTRTEQ
MA4GA1UECgwHRXhhbXBsZTEmMCQGA1UECwwdRXhhbXBsZSBDZXJ0aWZpY2F0ZSBB
dXRob3JpdHkxGDAWBgNVBAMMD0V4YW1wbGUgUm9vdCBDQTAeFw0xNzA2MjAwOTE2
MDhaFw0yNzA2MTgwOTE2MDhaMGsxCzAJBgNVBAYTAlNFMRAwDgYDVQQKDAdFeGFt
cGxlMSYwJAYDVQQLDB1FeGFtcGxlIENlcnRpZmljYXRlIEF1dGhvcml0eTEiMCAG
A1UEAwwZRXhhbXBsZSBDbHVzdGVyIEF1dGhvcml0eTCCASIwDQYJKoZIhvcNAQEB
BQADggEPADCCAQoCggEBAOP7UlQYbPzy7ss86H0c2LxsuaCIHEh51HNEZ7SxZ1CY
inWpIYa32it2b10xQXvtiB0BKEQpj+gG4UcIKxbU/W10YqYsYLyRPVOLMD4H/ceR
+12OSH+2EwakNufVW0BOvxGRfMJKo7iy0PG4YQC7jMSSJjodJiZBJa9wrIMoeftj
oX65DV6gJ5koej20vZKzVAt2VGYx4We2KspNwec9JP1t6LZ0VYDyqyHigC3gQhX4
cHSUt5LfFNgKAEqQiic7SHkQiT6CbC0Iep/VxAh01AGqRraK8CtuxZp3IPNQGfP5
UEu8FcQh31tpdALLAXeuYAjzM/5qsxB819ClcBzhXHcCAwEAAaOB1DCB0TAOBgNV
HQ8BAf8EBAMCAQYwEgYDVR0TAQH/BAgwBgEB/wIBADAdBgNVHQ4EFgQU266dTee4
hKbo6C0brXOuLCER4CwwHwYDVR0jBBgwFoAUc0sNJCs7hWMSV0zylF73Y2Gwv9Uw
OgYIKwYBBQUHAQEELjAsMCoGCCsGAQUFBzAChh5odHRwOi8vZXhhbXBsZS5jb20v
Y2Evcm9vdC5jZXIwLwYDVR0fBCgwJjAkoCKgIIYeaHR0cDovL2V4YW1wbGUuY29t
L2NhL3Jvb3QuY3JsMA0GCSqGSIb3DQEBBQUAA4IBAQDUkpX4wuW7HGQ8holt+uZ4
X1LcQMsC725UbrMBaeImtyk7AUtUARQhdF6ouiOxw1Ia7+4QxiowKGlNPw8Fqlck
YeGyniO4cajHi3dbEqIRHIxtaufIgnnYu76F/FaF9D17PGgIRdABbmobm2bMU3Ys
1YUvCs2YuIDEs7OY2In4W3z/6BFuHte4N2GFX1NiqCjo8Xe/9IbjdSeWygzjviLJ
nba3FF9arYJ9PB96QZ5NzA3n7gKwuRT7hFfWaUW6ZftkllrL6rk8LqMp/J+6azDb
kVc4FfjRsL8OJHDOqQEeQTTvL83BiSESx7FElLRnl+VaIOJELsSSrIT+2G8Gfz6z
-----END CERTIFICATE-----
