Certificate:
    Data:
        Version: 3 (0x2)
        Serial Number: 1 (0x1)
        Signature Algorithm: sha1WithRSAEncryption
        Issuer: C=SE, O=Example, OU=Example Certificate Authority, CN=Example Root CA
        Validity
            Not Before: Jun 20 09:16:08 2017 GMT
            Not After : May 27 09:16:08 2117 GMT
        Subject: C=SE, O=Example, OU=Example Certificate Authority, CN=Example Root CA
        Subject Public Key Info:
            Public Key Algorithm: rsaEncryption
            RSA Public Key: (2048 bit)
                Modulus (2048 bit):
                    00:d7:07:ac:6c:4b:7c:6d:f5:af:9d:b8:0d:c2:9b:
                    d0:98:08:30:83:50:15:9b:80:dd:c9:19:75:c6:9f:
                    7e:0f:5d:15:f2:7d:b8:9c:63:a9:8b:ff:13:b9:16:
                    fd:6c:cf:66:e0:12:2d:23:4e:e5:12:7d:0b:56:1d:
                    3a:06:81:f5:5e:d3:f0:06:14:42:5e:f5:dd:fd:b1:
                    24:69:7e:98:92:34:5d:c4:40:de:91:40:77:89:91:
                    27:d9:67:db:12:ea:72:a4:0b:47:0f:fe:14:91:5f:
                    24:d0:eb:95:e1:ef:3a:38:76:08:a3:55:2b:f8:5b:
                    13:2b:8d:3a:e7:3d:c4:85:5e:7e:80:d6:af:b4:6e:
                    d5:57:cb:bb:ab:e0:62:76:d0:66:8e:a3:d1:68:4c:
                    0c:62:d3:ac:c6:f0:36:f2:37:f6:68:63:c1:90:a4:
                    f2:d8:73:28:3e:f7:35:4f:89:e0:88:e7:03:da:78:
                    30:22:68:bf:70:fc:2d:c0:4c:ca:18:9f:2b:67:c5:
                    49:f6:8e:3a:ab:7c:d2:a3:9f:e6:9b:31:03:c2:cc:
                    81:f7:37:4a:5a:31:96:3e:9f:f2:77:fe:3f:b4:e0:
                    0f:5d:23:58:2e:b2:0e:74:8c:84:b5:f3:6d:ee:28:
                    61:48:28:51:ad:62:c2:44:06:3f:29:2c:d9:67:7f:
                    77:23
                Exponent: 65537 (0x10001)
        X509v3 extensions:
            X509v3 Key Usage: critical
                Certificate Sign, CRL Sign
            X509v3 Basic Constraints: critical
                CA:TRUE
            X509v3 Subject Key Identifier: 
                73:4B:0D:24:2B:3B:85:63:12:57:4C:F2:94:5E:F7:63:61:B0:BF:D5
            X509v3 Authority Key Identifier: 
                keyid:73:4B:0D:24:2B:3B:85:63:12:57:4C:F2:94:5E:F7:63:61:B0:BF:D5

    Signature Algorithm: sha1WithRSAEncryption
        a1:cf:c5:a4:dc:64:c6:10:54:75:5e:59:5a:48:99:d2:42:ce:
        ac:d5:58:8b:8b:65:40:92:a5:fd:a7:fa:02:e5:21:0c:d8:c5:
        2c:84:35:77:4e:01:31:5b:ff:b3:79:48:57:6a:01:52:bd:eb:
        09:fd:6a:93:d5:2d:de:05:f8:19:35:bb:68:f1:76:8e:fc:fe:
        b9:f9:ff:22:54:ac:43:78:01:7c:cc:4a:00:24:3a:9b:25:e7:
        46:5d:e0:40:02:3a:77:45:d7:37:a6:ea:fa:a7:07:b3:d7:60:
        9a:e8:85:a5:e9:f8:c5:8d:8e:d7:62:ba:28:f3:a2:bc:8b:7d:
        6a:84:a1:a2:1a:e9:e0:bd:55:9d:a1:c1:6a:94:13:bb:2d:35:
        ab:af:17:ac:76:6e:94:cf:c0:d9:0b:ee:75:fd:ab:d8:d4:b3:
        52:1a:ef:4f:9a:59:57:39:28:f5:5f:b5:94:7f:1a:25:22:d9:
        d8:e9:50:58:f1:06:e1:ae:d0:06:52:dc:b9:d9:77:c4:42:12:
        88:2c:07:b1:99:f5:06:78:23:b0:0f:52:9d:49:1a:e9:38:4c:
        04:1b:37:76:54:61:26:a0:49:fc:bb:cc:54:16:f3:42:36:a2:
        ed:0d:89:44:c9:33:1e:2c:5c:6b:b6:7b:3b:78:d3:3a:f0:a6:
        5e:83:35:a6
-----BEGIN CERTIFICATE-----
MIIDojCCAoqgAwIBAgIBATANBgkqhkiG9w0BAQUFADBhMQswCQYDVQQGEwJTRTEQ
MA4GA1UECgwHRXhhbXBsZTEmMCQGA1UECwwdRXhhbXBsZSBDZXJ0aWZpY2F0ZSBB
dXRob3JpdHkxGDAWBgNVBAMMD0V4YW1wbGUgUm9vdCBDQTAgFw0xNzA2MjAwOTE2
MDhaGA8yMTE3MDUyNzA5MTYwOFowYTELMAkGA1UEBhMCU0UxEDAOBgNVBAoMB0V4
YW1wbGUxJjAkBgNVBAsMHUV4YW1wbGUgQ2VydGlmaWNhdGUgQXV0aG9yaXR5MRgw
FgYDVQQDDA9FeGFtcGxlIFJvb3QgQ0EwggEiMA0GCSqGSIb3DQEBAQUAA4IBDwAw
ggEKAoIBAQDXB6xsS3xt9a+duA3Cm9CYCDCDUBWbgN3JGXXGn34PXRXyfbicY6mL
/xO5Fv1sz2bgEi0jTuUSfQtWHToGgfVe0/AGFEJe9d39sSRpfpiSNF3EQN6RQHeJ
kSfZZ9sS6nKkC0cP/hSRXyTQ65Xh7zo4dgijVSv4WxMrjTrnPcSFXn6A1q+0btVX
y7ur4GJ20GaOo9FoTAxi06zG8DbyN/ZoY8GQpPLYcyg+9zVPieCI5wPaeDAiaL9w
/C3ATMoYnytnxUn2jjqrfNKjn+abMQPCzIH3N0paMZY+n/J3/j+04A9dI1gusg50
jIS1823uKGFIKFGtYsJEBj8pLNlnf3cjAgMBAAGjYzBhMA4GA1UdDwEB/wQEAwIB
BjAPBgNVHRMBAf8EBTADAQH/MB0GA1UdDgQWBBRzSw0kKzuFYxJXTPKUXvdjYbC/
1TAfBgNVHSMEGDAWgBRzSw0kKzuFYxJXTPKUXvdjYbC/1TANBgkqhkiG9w0BAQUF
AAOCAQEAoc/FpNxkxhBUdV5ZWkiZ0kLOrNVYi4tlQJKl/af6AuUhDNjFLIQ1d04B
MVv/s3lIV2oBUr3rCf1qk9Ut3gX4GTW7aPF2jvz+ufn/IlSsQ3gBfMxKACQ6myXn
Rl3gQAI6d0XXN6bq+qcHs9dgmuiFpen4xY2O12K6KPOivIt9aoShohrp4L1VnaHB
apQTuy01q68XrHZulM/A2Qvudf2r2NSzUhrvT5pZVzko9V+1lH8aJSLZ2OlQWPEG
4a7QBlLcudl3xEISiCwHsZn1BngjsA9SnUka6ThMBBs3dlRhJqBJ/LvMVBbzQjai
7Q2JRMkzHixca7Z7O3jTOvCmXoM1pg==
-----END CERTIFICATE-----
