Certificate:
    Data:
        Version: 3 (0x2)
        Serial Number: 1 (0x1)
        Signature Algorithm: sha1WithRSAEncryption
        Issuer: C=SE, O=Example, OU=Example Certificate Authority, CN=Example Root CA
        Validity
            Not Before: Jan  9 14:58:44 2024 GMT
            Not After : Dec 16 14:58:44 2123 GMT
        Subject: C=SE, O=Example, OU=Example Certificate Authority, CN=Example Root CA
        Subject Public Key Info:
            Public Key Algorithm: rsaEncryption
                Public-Key: (2048 bit)
                Modulus:
                    00:c3:88:1c:93:19:1b:76:f3:f2:91:7d:77:82:9e:
                    83:3b:8c:2c:6e:69:ba:b0:2c:09:3e:30:1c:c4:1c:
                    a7:26:fa:85:88:c9:67:9a:ec:46:5d:b8:c1:7e:d7:
                    96:47:3e:01:5c:a5:40:14:33:c9:51:d5:1d:bb:32:
                    83:61:a9:35:c9:d4:af:7d:f4:12:1c:ed:cb:da:11:
                    4a:3f:be:5c:54:b8:2e:21:d3:e2:c2:93:ab:f3:a9:
                    66:56:a6:67:5a:06:1a:37:34:4f:cb:38:62:9c:e8:
                    e0:5e:4b:59:17:63:02:58:1d:7d:44:cd:50:73:10:
                    42:e3:dd:fd:f3:d1:63:1d:02:60:53:8c:c5:24:64:
                    fc:a3:a0:fe:69:a2:7e:5e:d5:ef:45:ab:12:1f:e1:
                    a6:64:63:a4:bf:e4:da:db:c1:36:e7:d1:ca:d9:33:
                    a4:71:a5:55:1f:64:94:3b:3c:97:40:90:eb:6d:d1:
                    4a:72:cb:55:15:3c:04:db:0e:fd:f0:14:8e:5d:d9:
                    bc:20:e2:d6:b6:e9:76:73:fa:d3:28:ad:8e:7d:f3:
                    1c:91:e2:f5:66:4e:cd:75:ac:bd:fa:dc:31:ef:50:
                    cb:3b:08:11:e1:c8:25:d2:df:20:62:56:12:e7:82:
                    79:d5:14:17:a2:d3:2c:d4:92:ea:a9:57:73:8b:89:
                    47:65
                Exponent: 65537 (0x10001)
        X509v3 extensions:
            X509v3 Key Usage: critical
                Certificate Sign, CRL Sign
            X509v3 Basic Constraints: critical
                CA:TRUE
            X509v3 Subject Key Identifier: 
                01:93:F9:1D:85:2D:AA:0F:86:FF:23:A8:6E:74:C4:63:01:4F:EF:75
            X509v3 Authority Key Identifier: 
                01:93:F9:1D:85:2D:AA:0F:86:FF:23:A8:6E:74:C4:63:01:4F:EF:75
    Signature Algorithm: sha1WithRSAEncryption
    Signature Value:
        15:ff:c9:06:8d:ac:c9:2e:47:72:0d:96:d9:fd:22:e8:5a:c7:
        9b:17:de:e1:8e:25:4e:1f:d5:9d:ed:33:34:ab:68:7c:c6:76:
        61:dd:46:89:9c:e5:48:d8:00:b0:1e:c1:24:9f:b5:1d:48:ce:
        1e:35:7a:ad:e1:be:53:c4:53:56:75:06:b5:9c:2a:8e:4d:67:
        6d:52:6a:09:80:5c:62:5d:f7:6b:37:9f:43:e7:b6:63:b0:31:
        8c:19:7d:cc:a2:52:92:6c:64:a2:f8:e4:85:46:32:1f:4d:a2:
        21:7b:ed:cb:03:75:59:67:c7:64:83:db:ae:23:7e:19:4a:a0:
        b8:31:0d:37:f0:79:29:fc:f8:e3:74:db:6f:ff:66:fc:b1:9b:
        f4:03:fb:6a:d8:38:b3:19:81:62:8a:1b:c2:b8:f6:61:c5:08:
        93:0e:2c:ee:35:a7:e5:22:a1:be:52:35:86:bd:e5:03:98:75:
        0d:5f:ee:9f:c9:d8:1f:45:4e:15:1b:02:3c:db:b7:54:2a:60:
        fd:e6:2a:a0:f1:59:8b:80:b2:d9:6e:ad:a7:ef:0a:9b:29:14:
        56:ae:63:76:44:40:c6:0c:12:68:51:d6:28:01:fb:a0:ad:47:
        a6:72:28:81:cc:74:74:4e:62:49:6f:22:9c:c1:14:cb:f0:17:
        d9:95:9a:9a
-----BEGIN CERTIFICATE-----
MIIDojCCAoqgAwIBAgIBATANBgkqhkiG9w0BAQUFADBhMQswCQYDVQQGEwJTRTEQ
MA4GA1UECgwHRXhhbXBsZTEmMCQGA1UECwwdRXhhbXBsZSBDZXJ0aWZpY2F0ZSBB
dXRob3JpdHkxGDAWBgNVBAMMD0V4YW1wbGUgUm9vdCBDQTAgFw0yNDAxMDkxNDU4
NDRaGA8yMTIzMTIxNjE0NTg0NFowYTELMAkGA1UEBhMCU0UxEDAOBgNVBAoMB0V4
YW1wbGUxJjAkBgNVBAsMHUV4YW1wbGUgQ2VydGlmaWNhdGUgQXV0aG9yaXR5MRgw
FgYDVQQDDA9FeGFtcGxlIFJvb3QgQ0EwggEiMA0GCSqGSIb3DQEBAQUAA4IBDwAw
ggEKAoIBAQDDiByTGRt28/KRfXeCnoM7jCxuabqwLAk+MBzEHKcm+oWIyWea7EZd
uMF+15ZHPgFcpUAUM8lR1R27MoNhqTXJ1K999BIc7cvaEUo/vlxUuC4h0+LCk6vz
qWZWpmdaBho3NE/LOGKc6OBeS1kXYwJYHX1EzVBzEELj3f3z0WMdAmBTjMUkZPyj
oP5pon5e1e9FqxIf4aZkY6S/5NrbwTbn0crZM6RxpVUfZJQ7PJdAkOtt0Upyy1UV
PATbDv3wFI5d2bwg4ta26XZz+tMorY598xyR4vVmTs11rL363DHvUMs7CBHhyCXS
3yBiVhLngnnVFBei0yzUkuqpV3OLiUdlAgMBAAGjYzBhMA4GA1UdDwEB/wQEAwIB
BjAPBgNVHRMBAf8EBTADAQH/MB0GA1UdDgQWBBQBk/kdhS2qD4b/I6hudMRjAU/v
dTAfBgNVHSMEGDAWgBQBk/kdhS2qD4b/I6hudMRjAU/vdTANBgkqhkiG9w0BAQUF
AAOCAQEAFf/JBo2syS5Hcg2W2f0i6FrHmxfe4Y4lTh/Vne0zNKtofMZ2Yd1GiZzl
SNgAsB7BJJ+1HUjOHjV6reG+U8RTVnUGtZwqjk1nbVJqCYBcYl33azefQ+e2Y7Ax
jBl9zKJSkmxkovjkhUYyH02iIXvtywN1WWfHZIPbriN+GUqguDENN/B5Kfz443Tb
b/9m/LGb9AP7atg4sxmBYoobwrj2YcUIkw4s7jWn5SKhvlI1hr3lA5h1DV/un8nY
H0VOFRsCPNu3VCpg/eYqoPFZi4Cy2W6tp+8KmykUVq5jdkRAxgwSaFHWKAH7oK1H
pnIogcx0dE5iSW8inMEUy/AX2ZWamg==
-----END CERTIFICATE-----
