Certificate:
    Data:
        Version: 3 (0x2)
        Serial Number: 11 (0xb)
        Signature Algorithm: sha1WithRSAEncryption
        Issuer: C=SE, O=Example, OU=Example Certificate Authority, CN=Example Cluster Authority
        Validity
            Not Before: Jan  9 14:58:46 2024 GMT
            Not After : Jul  1 14:58:46 2029 GMT
        Subject: C=SE, O=Example, OU=Example Cluster, CN=Server 10
        Subject Public Key Info:
            Public Key Algorithm: rsaEncryption
                Public-Key: (2048 bit)
                Modulus:
                    00:9a:36:9e:f8:99:0d:23:f3:15:df:cb:94:19:66:
                    18:e3:1f:1d:b0:17:91:3e:d2:b4:a4:4f:f7:23:1d:
                    75:73:80:2b:95:fb:61:64:eb:30:ac:e7:49:40:a0:
                    a9:0f:be:ef:d7:8a:6f:fc:fc:c1:e2:a0:0a:42:bf:
                    d2:bf:68:af:09:97:62:b2:66:de:55:e1:b2:4b:44:
                    ca:08:6c:55:5c:a7:9a:29:7b:24:68:74:1c:77:fd:
                    f4:d3:2e:8e:57:b9:84:d9:e7:a3:fa:f0:79:a5:46:
                    3e:f7:2e:1e:aa:93:bf:c0:3c:ca:0e:1e:c1:6a:8e:
                    2c:11:f0:19:0d:fb:1d:f4:6d:15:98:84:cf:d1:d1:
                    b2:87:6b:f0:5b:85:ab:85:f9:77:f1:6c:27:ff:fc:
                    eb:f1:1c:8e:28:26:2e:73:98:e0:d1:3f:d9:76:13:
                    41:0e:3e:eb:0a:ab:d3:7f:5a:2d:58:28:92:d9:7e:
                    f0:f4:6e:bf:e0:a4:83:90:85:63:c0:ca:95:2c:38:
                    8a:ed:71:7f:dd:1b:f9:f9:36:fd:03:aa:03:1f:43:
                    12:8e:b1:d0:32:da:7b:81:0d:15:31:f3:c2:88:c0:
                    1e:64:87:d4:f2:64:d2:fe:10:f0:40:74:0a:5c:9f:
                    8f:5e:2a:a9:78:6e:98:d1:9d:99:e1:ee:3f:41:f0:
                    22:97
                Exponent: 65537 (0x10001)
        X509v3 extensions:
            X509v3 Key Usage: critical
                Digital Signature, Key Encipherment
            X509v3 Basic Constraints: 
                CA:FALSE
            X509v3 Extended Key Usage: 
                TLS Web Server Authentication, TLS Web Client Authentication
            X509v3 Subject Key Identifier: 
                E1:E6:F4:1F:37:6E:4E:3C:E8:FB:EC:1E:BC:6C:AC:EF:D8:33:91:3E
            X509v3 Authority Key Identifier: 
                FE:6D:67:B0:11:E4:BB:CF:70:E0:75:A6:1C:21:33:83:15:32:5B:7B
            Authority Information Access: 
                CA Issuers - URI:http://example.com/ca/cluster.cer
            X509v3 CRL Distribution Points: 
                Full Name:
                  URI:http://example.com/ca/cluster.crl
            X509v3 Subject Alternative Name: 
                DNS:localhost
    Signature Algorithm: sha1WithRSAEncryption
    Signature Value:
        d7:53:37:d6:7c:ef:c8:33:ec:3a:7c:a2:b1:86:e4:80:ef:e1:
        ce:4b:4e:b7:f0:3d:d0:d3:aa:b9:6b:cd:37:c7:24:36:5d:07:
        96:29:75:93:4b:76:98:04:33:c0:43:ed:02:ab:3e:89:d1:eb:
        49:fa:72:46:7a:91:d8:65:4f:f2:3c:c2:13:8d:9a:3a:4b:4a:
        77:61:cd:6f:e7:8a:0d:31:e4:fe:c6:01:0a:8b:8a:ec:71:70:
        39:cd:b6:fc:ab:04:15:c8:e5:ae:a9:65:63:56:ee:6a:38:d5:
        d8:94:0d:36:76:17:f0:12:02:79:a1:28:f3:52:d7:9c:45:71:
        bd:92:e7:87:54:15:99:96:c3:28:15:cf:4d:d1:c3:27:29:a6:
        64:56:c1:53:6a:c8:07:9a:37:2a:66:74:8a:34:04:a1:3c:2c:
        6c:b7:69:cd:db:8b:7f:99:60:be:a5:28:03:0c:09:91:6f:10:
        8c:b9:d8:de:b3:e4:fb:7d:4d:32:b7:8f:f9:20:7b:81:0d:ee:
        42:4f:3f:1f:e4:28:88:b8:80:1f:b1:4e:00:3e:48:e6:0b:73:
        68:c5:71:bb:ba:f8:4c:34:02:78:b2:74:d3:84:a8:5f:e3:fb:
        7f:ba:91:b4:ae:76:3f:c4:fe:07:11:df:42:f6:3c:11:34:f2:
        9c:02:df:88
-----BEGIN CERTIFICATE-----
MIIEPDCCAySgAwIBAgIBCzANBgkqhkiG9w0BAQUFADBrMQswCQYDVQQGEwJTRTEQ
MA4GA1UECgwHRXhhbXBsZTEmMCQGA1UECwwdRXhhbXBsZSBDZXJ0aWZpY2F0ZSBB
dXRob3JpdHkxIjAgBgNVBAMMGUV4YW1wbGUgQ2x1c3RlciBBdXRob3JpdHkwHhcN
MjQwMTA5MTQ1ODQ2WhcNMjkwNzAxMTQ1ODQ2WjBNMQswCQYDVQQGEwJTRTEQMA4G
A1UECgwHRXhhbXBsZTEYMBYGA1UECwwPRXhhbXBsZSBDbHVzdGVyMRIwEAYDVQQD
DAlTZXJ2ZXIgMTAwggEiMA0GCSqGSIb3DQEBAQUAA4IBDwAwggEKAoIBAQCaNp74
mQ0j8xXfy5QZZhjjHx2wF5E+0rSkT/cjHXVzgCuV+2Fk6zCs50lAoKkPvu/Xim/8
/MHioApCv9K/aK8Jl2KyZt5V4bJLRMoIbFVcp5opeyRodBx3/fTTLo5XuYTZ56P6
8HmlRj73Lh6qk7/APMoOHsFqjiwR8BkN+x30bRWYhM/R0bKHa/BbhauF+XfxbCf/
/OvxHI4oJi5zmODRP9l2E0EOPusKq9N/Wi1YKJLZfvD0br/gpIOQhWPAypUsOIrt
cX/dG/n5Nv0DqgMfQxKOsdAy2nuBDRUx88KIwB5kh9TyZNL+EPBAdApcn49eKql4
bpjRnZnh7j9B8CKXAgMBAAGjggEHMIIBAzAOBgNVHQ8BAf8EBAMCBaAwCQYDVR0T
BAIwADAdBgNVHSUEFjAUBggrBgEFBQcDAQYIKwYBBQUHAwIwHQYDVR0OBBYEFOHm
9B83bk486PvsHrxsrO/YM5E+MB8GA1UdIwQYMBaAFP5tZ7AR5LvPcOB1phwhM4MV
Mlt7MD0GCCsGAQUFBwEBBDEwLzAtBggrBgEFBQcwAoYhaHR0cDovL2V4YW1wbGUu
Y29tL2NhL2NsdXN0ZXIuY2VyMDIGA1UdHwQrMCkwJ6AloCOGIWh0dHA6Ly9leGFt
cGxlLmNvbS9jYS9jbHVzdGVyLmNybDAUBgNVHREEDTALgglsb2NhbGhvc3QwDQYJ
KoZIhvcNAQEFBQADggEBANdTN9Z878gz7Dp8orGG5IDv4c5LTrfwPdDTqrlrzTfH
JDZdB5YpdZNLdpgEM8BD7QKrPonR60n6ckZ6kdhlT/I8whONmjpLSndhzW/nig0x
5P7GAQqLiuxxcDnNtvyrBBXI5a6pZWNW7mo41diUDTZ2F/ASAnmhKPNS15xFcb2S
54dUFZmWwygVz03RwycppmRWwVNqyAeaNypmdIo0BKE8LGy3ac3bi3+ZYL6lKAMM
CZFvEIy52N6z5Pt9TTK3j/kge4EN7kJPPx/kKIi4gB+xTgA+SOYLc2jFcbu6+Ew0
AniydNOEqF/j+3+6kbSudj/E/gcR30L2PBE08pwC34g=
-----END CERTIFICATE-----
