Certificate:
    Data:
        Version: 3 (0x2)
        Serial Number: 11 (0xb)
    Signature Algorithm: sha1WithRSAEncryption
        Issuer: C=SE, O=Example, OU=Example Certificate Authority, CN=Example Cluster Authority
        Validity
            Not Before: Jul  9 14:29:07 2018 GMT
            Not After : Dec 30 14:29:07 2023 GMT
        Subject: C=SE, O=Example, OU=Example Cluster, CN=Server 10
        Subject Public Key Info:
            Public Key Algorithm: rsaEncryption
                Public-Key: (2048 bit)
                Modulus:
                    00:e3:c2:8b:fd:0b:25:19:a7:33:be:cd:54:72:89:
                    e6:ed:3f:d3:80:f6:42:9d:c3:85:3a:5b:a5:69:ce:
                    64:4b:98:d8:eb:6a:79:3c:54:42:59:15:b4:51:c1:
                    4f:3b:71:51:75:52:cf:dd:78:be:f3:f3:0c:96:c4:
                    28:66:d3:0b:03:40:77:3d:d8:fb:c9:ad:d0:a6:ca:
                    c4:86:58:de:c3:b5:1e:68:4f:58:be:b8:af:4a:cf:
                    24:34:dd:3c:50:50:e4:d1:82:34:83:c8:7c:11:b3:
                    bb:f6:8c:9b:d3:74:23:31:f2:24:52:dd:ee:d6:28:
                    04:1c:a8:c7:53:9f:f8:73:cc:a3:c4:34:48:7b:fb:
                    92:bd:da:5f:80:e0:f1:8c:6f:8f:ba:be:d8:60:e5:
                    02:ca:c3:c6:3a:f3:01:ad:73:aa:71:fd:62:8f:27:
                    6c:41:a4:76:64:db:19:5a:7d:db:89:a2:75:a4:67:
                    7d:2c:74:31:10:42:f3:d1:1b:16:db:b8:51:29:6e:
                    c2:9d:97:32:ff:82:a2:8d:b2:a8:59:85:37:1f:2c:
                    d0:1f:a8:83:72:f8:af:c7:1e:be:92:c8:ef:0c:de:
                    31:dd:5f:6d:f4:0e:b3:33:b8:36:c6:ae:4f:67:e5:
                    51:16:47:4a:a6:05:da:58:a7:2b:a1:c7:c2:e6:e6:
                    22:b9
                Exponent: 65537 (0x10001)
        X509v3 extensions:
            X509v3 Key Usage: critical
                Digital Signature, Key Encipherment
            X509v3 Basic Constraints: 
                CA:FALSE
            X509v3 Extended Key Usage: 
                TLS Web Server Authentication, TLS Web Client Authentication
            X509v3 Subject Key Identifier: 
                D2:45:01:C1:04:13:73:D5:02:D2:F2:C8:92:BD:94:58:A8:FE:A9:32
            X509v3 Authority Key Identifier: 
                keyid:BD:CD:52:9A:5A:3D:8A:10:85:DF:95:56:63:EE:2B:3A:74:74:E4:33

            Authority Information Access: 
                CA Issuers - URI:http://example.com/ca/cluster.cer

            X509v3 CRL Distribution Points: 

                Full Name:
                  URI:http://example.com/ca/cluster.crl

            X509v3 Subject Alternative Name: 
                DNS:localhost
    Signature Algorithm: sha1WithRSAEncryption
         ac:c7:af:81:02:7c:b5:a2:39:63:bb:cc:a2:7b:85:9c:6a:58:
         20:e2:32:50:f2:01:83:fc:50:42:66:94:d6:96:92:0a:0d:c7:
         f5:85:cd:c2:67:99:30:b7:d3:73:d3:1d:7a:97:42:49:f0:a2:
         82:cc:d1:6e:bd:e3:7e:9c:4b:fc:c6:92:44:46:a0:15:d3:76:
         cf:b4:74:c9:f6:33:77:f5:e0:db:6b:28:34:ca:17:eb:3d:ed:
         2d:08:1c:1e:d2:01:b7:49:59:bc:05:68:91:54:cc:73:d4:5e:
         32:09:7b:73:5a:e3:43:04:71:05:ec:1b:8f:13:d9:76:43:90:
         81:97:91:61:63:7a:2e:5a:a8:95:e8:fe:27:a6:02:c3:80:31:
         33:8f:0f:c2:93:58:0f:de:21:ea:fc:8b:7a:2c:b1:91:3a:8d:
         b5:d0:ce:cf:3d:94:96:52:c7:04:8d:36:39:c3:f3:66:3a:ea:
         84:db:16:17:93:f3:40:7a:8a:be:8d:ea:2a:ed:47:25:11:9a:
         0f:4d:c4:de:69:73:31:cb:4e:6a:d8:9c:b8:21:8e:46:ea:0f:
         a0:88:7b:db:21:95:17:1f:ad:15:aa:d8:f5:62:b8:ea:86:8e:
         06:91:e3:56:4b:7f:77:9e:0c:95:21:e6:79:c4:3e:23:75:bc:
         6a:5c:d7:e3
-----BEGIN CERTIFICATE-----
MIIEPDCCAySgAwIBAgIBCzANBgkqhkiG9w0BAQUFADBrMQswCQYDVQQGEwJTRTEQ
MA4GA1UECgwHRXhhbXBsZTEmMCQGA1UECwwdRXhhbXBsZSBDZXJ0aWZpY2F0ZSBB
dXRob3JpdHkxIjAgBgNVBAMMGUV4YW1wbGUgQ2x1c3RlciBBdXRob3JpdHkwHhcN
MTgwNzA5MTQyOTA3WhcNMjMxMjMwMTQyOTA3WjBNMQswCQYDVQQGEwJTRTEQMA4G
A1UECgwHRXhhbXBsZTEYMBYGA1UECwwPRXhhbXBsZSBDbHVzdGVyMRIwEAYDVQQD
DAlTZXJ2ZXIgMTAwggEiMA0GCSqGSIb3DQEBAQUAA4IBDwAwggEKAoIBAQDjwov9
CyUZpzO+zVRyiebtP9OA9kKdw4U6W6VpzmRLmNjrank8VEJZFbRRwU87cVF1Us/d
eL7z8wyWxChm0wsDQHc92PvJrdCmysSGWN7DtR5oT1i+uK9KzyQ03TxQUOTRgjSD
yHwRs7v2jJvTdCMx8iRS3e7WKAQcqMdTn/hzzKPENEh7+5K92l+A4PGMb4+6vthg
5QLKw8Y68wGtc6px/WKPJ2xBpHZk2xlafduJonWkZ30sdDEQQvPRGxbbuFEpbsKd
lzL/gqKNsqhZhTcfLNAfqINy+K/HHr6SyO8M3jHdX230DrMzuDbGrk9n5VEWR0qm
BdpYpyuhx8Lm5iK5AgMBAAGjggEHMIIBAzAOBgNVHQ8BAf8EBAMCBaAwCQYDVR0T
BAIwADAdBgNVHSUEFjAUBggrBgEFBQcDAQYIKwYBBQUHAwIwHQYDVR0OBBYEFNJF
AcEEE3PVAtLyyJK9lFio/qkyMB8GA1UdIwQYMBaAFL3NUppaPYoQhd+VVmPuKzp0
dOQzMD0GCCsGAQUFBwEBBDEwLzAtBggrBgEFBQcwAoYhaHR0cDovL2V4YW1wbGUu
Y29tL2NhL2NsdXN0ZXIuY2VyMDIGA1UdHwQrMCkwJ6AloCOGIWh0dHA6Ly9leGFt
cGxlLmNvbS9jYS9jbHVzdGVyLmNybDAUBgNVHREEDTALgglsb2NhbGhvc3QwDQYJ
KoZIhvcNAQEFBQADggEBAKzHr4ECfLWiOWO7zKJ7hZxqWCDiMlDyAYP8UEJmlNaW
kgoNx/WFzcJnmTC303PTHXqXQknwooLM0W69436cS/zGkkRGoBXTds+0dMn2M3f1
4NtrKDTKF+s97S0IHB7SAbdJWbwFaJFUzHPUXjIJe3Na40MEcQXsG48T2XZDkIGX
kWFjei5aqJXo/iemAsOAMTOPD8KTWA/eIer8i3ossZE6jbXQzs89lJZSxwSNNjnD
82Y66oTbFheT80B6ir6N6irtRyURmg9NxN5pczHLTmrYnLghjkbqD6CIe9shlRcf
rRWq2PViuOqGjgaR41ZLf3eeDJUh5nnEPiN1vGpc1+M=
-----END CERTIFICATE-----
